
kernel.bin:     file format elf64-x86-64


Disassembly of section .text:

0000000000104000 <_ZN4core3ptr37drop_in_place$LT$core..fmt..Error$GT$17h80ab1894ba1bfddaE>:
  104000:	c3                   	ret
  104001:	66 2e 0f 1f 84 00 00 	cs nopw 0x0(%rax,%rax,1)
  104008:	00 00 00 
  10400b:	0f 1f 44 00 00       	nopl   0x0(%rax,%rax,1)

0000000000104010 <_ZN4core3ptr66drop_in_place$LT$nothingos..start..$u7b$$u7b$closure$u7d$$u7d$$GT$17h08f15269e963b77eE>:
  104010:	c3                   	ret
  104011:	66 2e 0f 1f 84 00 00 	cs nopw 0x0(%rax,%rax,1)
  104018:	00 00 00 
  10401b:	0f 1f 44 00 00       	nopl   0x0(%rax,%rax,1)

0000000000104020 <_ZN4core3ptr66drop_in_place$LT$nothingos..start..$u7b$$u7b$closure$u7d$$u7d$$GT$17h29b1d90899138ed1E>:
  104020:	c3                   	ret
  104021:	66 2e 0f 1f 84 00 00 	cs nopw 0x0(%rax,%rax,1)
  104028:	00 00 00 
  10402b:	0f 1f 44 00 00       	nopl   0x0(%rax,%rax,1)

0000000000104030 <_ZN53_$LT$core..fmt..Error$u20$as$u20$core..fmt..Debug$GT$3fmt17hd1558d5fae9db22dE>:
  104030:	48 89 f7             	mov    %rsi,%rdi
  104033:	48 8d 35 fe bf ff ff 	lea    -0x4002(%rip),%rsi        # 100038 <str.1-0x2b8>
  10403a:	ba 05 00 00 00       	mov    $0x5,%edx
  10403f:	e9 3c 03 01 00       	jmp    114380 <_ZN4core3fmt9Formatter9write_str17h8eb588591b035279E>
  104044:	66 2e 0f 1f 84 00 00 	cs nopw 0x0(%rax,%rax,1)
  10404b:	00 00 00 
  10404e:	66 90                	xchg   %ax,%ax

0000000000104050 <_ZN57_$LT$pc_keyboard..KeyCode$u20$as$u20$core..fmt..Debug$GT$3fmt17he54d9a93c567e557E>:
  104050:	48 89 f0             	mov    %rsi,%rax
  104053:	0f b6 0f             	movzbl (%rdi),%ecx
  104056:	48 8d 15 bb c2 ff ff 	lea    -0x3d45(%rip),%rdx        # 100318 <str.1+0x28>
  10405d:	48 8b 14 ca          	mov    (%rdx,%rcx,8),%rdx
  104061:	48 8d 3d 48 c6 ff ff 	lea    -0x39b8(%rip),%rdi        # 1006b0 <str.1+0x3c0>
  104068:	48 63 34 8f          	movslq (%rdi,%rcx,4),%rsi
  10406c:	48 01 fe             	add    %rdi,%rsi
  10406f:	48 89 c7             	mov    %rax,%rdi
  104072:	e9 09 03 01 00       	jmp    114380 <_ZN4core3fmt9Formatter9write_str17h8eb588591b035279E>
  104077:	66 0f 1f 84 00 00 00 	nopw   0x0(%rax,%rax,1)
  10407e:	00 00 

0000000000104080 <_ZN5alloc11collections9vec_deque21VecDeque$LT$T$C$A$GT$4grow17h1d3637f788244cf5E>:
  104080:	41 57                	push   %r15
  104082:	41 56                	push   %r14
  104084:	53                   	push   %rbx
  104085:	48 89 fb             	mov    %rdi,%rbx
  104088:	4c 8b 37             	mov    (%rdi),%r14
  10408b:	4c 89 f6             	mov    %r14,%rsi
  10408e:	e8 0d 01 00 00       	call   1041a0 <_ZN5alloc7raw_vec19RawVec$LT$T$C$A$GT$16reserve_for_push17hd3cfb2d95405d50bE>
  104093:	48 8b 4b 10          	mov    0x10(%rbx),%rcx
  104097:	48 8b 43 18          	mov    0x18(%rbx),%rax
  10409b:	4c 89 f2             	mov    %r14,%rdx
  10409e:	48 29 c2             	sub    %rax,%rdx
  1040a1:	48 39 d1             	cmp    %rdx,%rcx
  1040a4:	76 62                	jbe    104108 <_ZN5alloc11collections9vec_deque21VecDeque$LT$T$C$A$GT$4grow17h1d3637f788244cf5E+0x88>
  1040a6:	4c 8b 3b             	mov    (%rbx),%r15
  1040a9:	4c 89 f2             	mov    %r14,%rdx
  1040ac:	48 29 ca             	sub    %rcx,%rdx
  1040af:	48 29 d0             	sub    %rdx,%rax
  1040b2:	48 39 c2             	cmp    %rax,%rdx
  1040b5:	76 29                	jbe    1040e0 <_ZN5alloc11collections9vec_deque21VecDeque$LT$T$C$A$GT$4grow17h1d3637f788244cf5E+0x60>
  1040b7:	4c 89 fe             	mov    %r15,%rsi
  1040ba:	4c 29 f6             	sub    %r14,%rsi
  1040bd:	48 39 c6             	cmp    %rax,%rsi
  1040c0:	72 1e                	jb     1040e0 <_ZN5alloc11collections9vec_deque21VecDeque$LT$T$C$A$GT$4grow17h1d3637f788244cf5E+0x60>
  1040c2:	48 8b 73 08          	mov    0x8(%rbx),%rsi
  1040c6:	4b 8d 0c 76          	lea    (%r14,%r14,2),%rcx
  1040ca:	48 8d 3c ce          	lea    (%rsi,%rcx,8),%rdi
  1040ce:	48 c1 e0 03          	shl    $0x3,%rax
  1040d2:	48 8d 14 40          	lea    (%rax,%rax,2),%rdx
  1040d6:	5b                   	pop    %rbx
  1040d7:	41 5e                	pop    %r14
  1040d9:	41 5f                	pop    %r15
  1040db:	e9 10 2d 01 00       	jmp    116df0 <memcpy>
  1040e0:	49 29 d7             	sub    %rdx,%r15
  1040e3:	48 8b 43 08          	mov    0x8(%rbx),%rax
  1040e7:	48 8d 0c 49          	lea    (%rcx,%rcx,2),%rcx
  1040eb:	48 8d 34 c8          	lea    (%rax,%rcx,8),%rsi
  1040ef:	4b 8d 0c 7f          	lea    (%r15,%r15,2),%rcx
  1040f3:	48 8d 3c c8          	lea    (%rax,%rcx,8),%rdi
  1040f7:	48 c1 e2 03          	shl    $0x3,%rdx
  1040fb:	48 8d 14 52          	lea    (%rdx,%rdx,2),%rdx
  1040ff:	e8 fc 2c 01 00       	call   116e00 <memmove>
  104104:	4c 89 7b 10          	mov    %r15,0x10(%rbx)
  104108:	5b                   	pop    %rbx
  104109:	41 5e                	pop    %r14
  10410b:	41 5f                	pop    %r15
  10410d:	c3                   	ret
  10410e:	66 90                	xchg   %ax,%ax

0000000000104110 <_ZN5alloc7raw_vec11finish_grow17haa0309473a22e173E>:
  104110:	41 57                	push   %r15
  104112:	41 56                	push   %r14
  104114:	53                   	push   %rbx
  104115:	48 89 fb             	mov    %rdi,%rbx
  104118:	48 85 f6             	test   %rsi,%rsi
  10411b:	74 5e                	je     10417b <_ZN5alloc7raw_vec11finish_grow17haa0309473a22e173E+0x6b>
  10411d:	49 89 d6             	mov    %rdx,%r14
  104120:	49 89 f7             	mov    %rsi,%r15
  104123:	48 83 79 08 00       	cmpq   $0x0,0x8(%rcx)
  104128:	74 28                	je     104152 <_ZN5alloc7raw_vec11finish_grow17haa0309473a22e173E+0x42>
  10412a:	48 8b 71 10          	mov    0x10(%rcx),%rsi
  10412e:	48 85 f6             	test   %rsi,%rsi
  104131:	74 1f                	je     104152 <_ZN5alloc7raw_vec11finish_grow17haa0309473a22e173E+0x42>
  104133:	48 8b 39             	mov    (%rcx),%rdi
  104136:	4c 89 fa             	mov    %r15,%rdx
  104139:	4c 89 f1             	mov    %r14,%rcx
  10413c:	e8 4f 13 00 00       	call   105490 <__rust_realloc>
  104141:	48 85 c0             	test   %rax,%rax
  104144:	74 2b                	je     104171 <_ZN5alloc7raw_vec11finish_grow17haa0309473a22e173E+0x61>
  104146:	48 89 43 08          	mov    %rax,0x8(%rbx)
  10414a:	4c 89 73 10          	mov    %r14,0x10(%rbx)
  10414e:	31 c0                	xor    %eax,%eax
  104150:	eb 36                	jmp    104188 <_ZN5alloc7raw_vec11finish_grow17haa0309473a22e173E+0x78>
  104152:	4d 85 f6             	test   %r14,%r14
  104155:	74 3a                	je     104191 <_ZN5alloc7raw_vec11finish_grow17haa0309473a22e173E+0x81>
  104157:	48 8d 05 a3 7e 01 00 	lea    0x17ea3(%rip),%rax        # 11c001 <__rust_no_alloc_shim_is_unstable>
  10415e:	0f b6 00             	movzbl (%rax),%eax
  104161:	4c 89 f7             	mov    %r14,%rdi
  104164:	4c 89 fe             	mov    %r15,%rsi
  104167:	e8 14 12 00 00       	call   105380 <__rust_alloc>
  10416c:	48 85 c0             	test   %rax,%rax
  10416f:	75 d5                	jne    104146 <_ZN5alloc7raw_vec11finish_grow17haa0309473a22e173E+0x36>
  104171:	4c 89 7b 08          	mov    %r15,0x8(%rbx)
  104175:	4c 89 73 10          	mov    %r14,0x10(%rbx)
  104179:	eb 08                	jmp    104183 <_ZN5alloc7raw_vec11finish_grow17haa0309473a22e173E+0x73>
  10417b:	48 c7 43 08 00 00 00 	movq   $0x0,0x8(%rbx)
  104182:	00 
  104183:	b8 01 00 00 00       	mov    $0x1,%eax
  104188:	48 89 03             	mov    %rax,(%rbx)
  10418b:	5b                   	pop    %rbx
  10418c:	41 5e                	pop    %r14
  10418e:	41 5f                	pop    %r15
  104190:	c3                   	ret
  104191:	4c 89 f8             	mov    %r15,%rax
  104194:	48 85 c0             	test   %rax,%rax
  104197:	75 ad                	jne    104146 <_ZN5alloc7raw_vec11finish_grow17haa0309473a22e173E+0x36>
  104199:	eb d6                	jmp    104171 <_ZN5alloc7raw_vec11finish_grow17haa0309473a22e173E+0x61>
  10419b:	0f 1f 44 00 00       	nopl   0x0(%rax,%rax,1)

00000000001041a0 <_ZN5alloc7raw_vec19RawVec$LT$T$C$A$GT$16reserve_for_push17hd3cfb2d95405d50bE>:
  1041a0:	41 56                	push   %r14
  1041a2:	53                   	push   %rbx
  1041a3:	48 83 ec 38          	sub    $0x38,%rsp
  1041a7:	48 89 f0             	mov    %rsi,%rax
  1041aa:	48 ff c0             	inc    %rax
  1041ad:	0f 84 9f 00 00 00    	je     104252 <_ZN5alloc7raw_vec19RawVec$LT$T$C$A$GT$16reserve_for_push17hd3cfb2d95405d50bE+0xb2>
  1041b3:	48 89 fb             	mov    %rdi,%rbx
  1041b6:	48 8b 0f             	mov    (%rdi),%rcx
  1041b9:	48 8d 14 09          	lea    (%rcx,%rcx,1),%rdx
  1041bd:	48 39 c2             	cmp    %rax,%rdx
  1041c0:	48 0f 47 c2          	cmova  %rdx,%rax
  1041c4:	48 ba 56 55 55 55 55 	movabs $0x555555555555556,%rdx
  1041cb:	55 55 05 
  1041ce:	31 f6                	xor    %esi,%esi
  1041d0:	48 39 d0             	cmp    %rdx,%rax
  1041d3:	40 0f 92 c6          	setb   %sil
  1041d7:	48 83 f8 05          	cmp    $0x5,%rax
  1041db:	41 be 04 00 00 00    	mov    $0x4,%r14d
  1041e1:	4c 0f 43 f0          	cmovae %rax,%r14
  1041e5:	4a 8d 04 f5 00 00 00 	lea    0x0(,%r14,8),%rax
  1041ec:	00 
  1041ed:	48 8d 14 40          	lea    (%rax,%rax,2),%rdx
  1041f1:	c1 e6 03             	shl    $0x3,%esi
  1041f4:	48 85 c9             	test   %rcx,%rcx
  1041f7:	74 1d                	je     104216 <_ZN5alloc7raw_vec19RawVec$LT$T$C$A$GT$16reserve_for_push17hd3cfb2d95405d50bE+0x76>
  1041f9:	48 8b 43 08          	mov    0x8(%rbx),%rax
  1041fd:	48 c1 e1 03          	shl    $0x3,%rcx
  104201:	48 8d 0c 49          	lea    (%rcx,%rcx,2),%rcx
  104205:	48 89 44 24 20       	mov    %rax,0x20(%rsp)
  10420a:	48 89 4c 24 30       	mov    %rcx,0x30(%rsp)
  10420f:	b8 08 00 00 00       	mov    $0x8,%eax
  104214:	eb 02                	jmp    104218 <_ZN5alloc7raw_vec19RawVec$LT$T$C$A$GT$16reserve_for_push17hd3cfb2d95405d50bE+0x78>
  104216:	31 c0                	xor    %eax,%eax
  104218:	48 89 44 24 28       	mov    %rax,0x28(%rsp)
  10421d:	48 8d 7c 24 08       	lea    0x8(%rsp),%rdi
  104222:	48 8d 4c 24 20       	lea    0x20(%rsp),%rcx
  104227:	e8 e4 fe ff ff       	call   104110 <_ZN5alloc7raw_vec11finish_grow17haa0309473a22e173E>
  10422c:	48 83 7c 24 08 00    	cmpq   $0x0,0x8(%rsp)
  104232:	75 14                	jne    104248 <_ZN5alloc7raw_vec19RawVec$LT$T$C$A$GT$16reserve_for_push17hd3cfb2d95405d50bE+0xa8>
  104234:	48 8b 44 24 10       	mov    0x10(%rsp),%rax
  104239:	48 89 43 08          	mov    %rax,0x8(%rbx)
  10423d:	4c 89 33             	mov    %r14,(%rbx)
  104240:	48 83 c4 38          	add    $0x38,%rsp
  104244:	5b                   	pop    %rbx
  104245:	41 5e                	pop    %r14
  104247:	c3                   	ret
  104248:	48 8b 7c 24 10       	mov    0x10(%rsp),%rdi
  10424d:	48 85 ff             	test   %rdi,%rdi
  104250:	75 05                	jne    104257 <_ZN5alloc7raw_vec19RawVec$LT$T$C$A$GT$16reserve_for_push17hd3cfb2d95405d50bE+0xb7>
  104252:	e8 e9 f3 00 00       	call   113640 <_ZN5alloc7raw_vec17capacity_overflow17h94e8593c92a523e5E>
  104257:	48 8b 74 24 18       	mov    0x18(%rsp),%rsi
  10425c:	e8 ff f2 00 00       	call   113560 <_ZN5alloc5alloc18handle_alloc_error17hb028c0b596ed5966E>
  104261:	66 2e 0f 1f 84 00 00 	cs nopw 0x0(%rax,%rax,1)
  104268:	00 00 00 
  10426b:	0f 1f 44 00 00       	nopl   0x0(%rax,%rax,1)

0000000000104270 <_ZN9nothingos4task8executor8Executor5spawn17h9ae2ed16e5081b63E>:
  104270:	41 56                	push   %r14
  104272:	53                   	push   %rbx
  104273:	50                   	push   %rax
  104274:	48 89 fb             	mov    %rdi,%rbx
  104277:	48 8d 05 83 7d 01 00 	lea    0x17d83(%rip),%rax        # 11c001 <__rust_no_alloc_shim_is_unstable>
  10427e:	0f b6 00             	movzbl (%rax),%eax
  104281:	bf 01 00 00 00       	mov    $0x1,%edi
  104286:	be 01 00 00 00       	mov    $0x1,%esi
  10428b:	e8 f0 10 00 00       	call   105380 <__rust_alloc>
  104290:	48 85 c0             	test   %rax,%rax
  104293:	74 60                	je     1042f5 <_ZN9nothingos4task8executor8Executor5spawn17h9ae2ed16e5081b63E+0x85>
  104295:	49 89 c6             	mov    %rax,%r14
  104298:	c6 00 00             	movb   $0x0,(%rax)
  10429b:	48 8b 0b             	mov    (%rbx),%rcx
  10429e:	48 8b 43 18          	mov    0x18(%rbx),%rax
  1042a2:	48 39 c8             	cmp    %rcx,%rax
  1042a5:	75 0f                	jne    1042b6 <_ZN9nothingos4task8executor8Executor5spawn17h9ae2ed16e5081b63E+0x46>
  1042a7:	48 89 df             	mov    %rbx,%rdi
  1042aa:	e8 d1 fd ff ff       	call   104080 <_ZN5alloc11collections9vec_deque21VecDeque$LT$T$C$A$GT$4grow17h1d3637f788244cf5E>
  1042af:	48 8b 0b             	mov    (%rbx),%rcx
  1042b2:	48 8b 43 18          	mov    0x18(%rbx),%rax
  1042b6:	48 8b 53 10          	mov    0x10(%rbx),%rdx
  1042ba:	48 01 c2             	add    %rax,%rdx
  1042bd:	31 f6                	xor    %esi,%esi
  1042bf:	48 39 ca             	cmp    %rcx,%rdx
  1042c2:	48 0f 43 f1          	cmovae %rcx,%rsi
  1042c6:	48 29 f2             	sub    %rsi,%rdx
  1042c9:	48 8b 4b 08          	mov    0x8(%rbx),%rcx
  1042cd:	48 8d 14 52          	lea    (%rdx,%rdx,2),%rdx
  1042d1:	4c 89 34 d1          	mov    %r14,(%rcx,%rdx,8)
  1042d5:	48 8d 35 24 3d 01 00 	lea    0x13d24(%rip),%rsi        # 118000 <enable_paging+0xddf>
  1042dc:	48 89 74 d1 08       	mov    %rsi,0x8(%rcx,%rdx,8)
  1042e1:	c6 44 d1 10 00       	movb   $0x0,0x10(%rcx,%rdx,8)
  1042e6:	48 ff c0             	inc    %rax
  1042e9:	48 89 43 18          	mov    %rax,0x18(%rbx)
  1042ed:	48 83 c4 08          	add    $0x8,%rsp
  1042f1:	5b                   	pop    %rbx
  1042f2:	41 5e                	pop    %r14
  1042f4:	c3                   	ret
  1042f5:	bf 01 00 00 00       	mov    $0x1,%edi
  1042fa:	be 01 00 00 00       	mov    $0x1,%esi
  1042ff:	e8 5c f2 00 00       	call   113560 <_ZN5alloc5alloc18handle_alloc_error17hb028c0b596ed5966E>
  104304:	66 2e 0f 1f 84 00 00 	cs nopw 0x0(%rax,%rax,1)
  10430b:	00 00 00 
  10430e:	66 90                	xchg   %ax,%ax

0000000000104310 <_ZN9nothingos4task8executor8Executor5spawn17hdb2120aff8415fc7E>:
  104310:	41 57                	push   %r15
  104312:	41 56                	push   %r14
  104314:	53                   	push   %rbx
  104315:	49 89 f7             	mov    %rsi,%r15
  104318:	48 89 fb             	mov    %rdi,%rbx
  10431b:	48 8d 05 df 7c 01 00 	lea    0x17cdf(%rip),%rax        # 11c001 <__rust_no_alloc_shim_is_unstable>
  104322:	0f b6 00             	movzbl (%rax),%eax
  104325:	bf 18 00 00 00       	mov    $0x18,%edi
  10432a:	be 08 00 00 00       	mov    $0x8,%esi
  10432f:	e8 4c 10 00 00       	call   105380 <__rust_alloc>
  104334:	48 85 c0             	test   %rax,%rax
  104337:	74 71                	je     1043aa <_ZN9nothingos4task8executor8Executor5spawn17hdb2120aff8415fc7E+0x9a>
  104339:	49 89 c6             	mov    %rax,%r14
  10433c:	49 8b 47 10          	mov    0x10(%r15),%rax
  104340:	49 89 46 10          	mov    %rax,0x10(%r14)
  104344:	49 8b 07             	mov    (%r15),%rax
  104347:	49 8b 4f 08          	mov    0x8(%r15),%rcx
  10434b:	49 89 4e 08          	mov    %rcx,0x8(%r14)
  10434f:	49 89 06             	mov    %rax,(%r14)
  104352:	48 8b 0b             	mov    (%rbx),%rcx
  104355:	48 8b 43 18          	mov    0x18(%rbx),%rax
  104359:	48 39 c8             	cmp    %rcx,%rax
  10435c:	75 0f                	jne    10436d <_ZN9nothingos4task8executor8Executor5spawn17hdb2120aff8415fc7E+0x5d>
  10435e:	48 89 df             	mov    %rbx,%rdi
  104361:	e8 1a fd ff ff       	call   104080 <_ZN5alloc11collections9vec_deque21VecDeque$LT$T$C$A$GT$4grow17h1d3637f788244cf5E>
  104366:	48 8b 0b             	mov    (%rbx),%rcx
  104369:	48 8b 43 18          	mov    0x18(%rbx),%rax
  10436d:	48 8b 53 10          	mov    0x10(%rbx),%rdx
  104371:	48 01 c2             	add    %rax,%rdx
  104374:	31 f6                	xor    %esi,%esi
  104376:	48 39 ca             	cmp    %rcx,%rdx
  104379:	48 0f 43 f1          	cmovae %rcx,%rsi
  10437d:	48 29 f2             	sub    %rsi,%rdx
  104380:	48 8b 4b 08          	mov    0x8(%rbx),%rcx
  104384:	48 8d 14 52          	lea    (%rdx,%rdx,2),%rdx
  104388:	4c 89 34 d1          	mov    %r14,(%rcx,%rdx,8)
  10438c:	48 8d 35 8d 3c 01 00 	lea    0x13c8d(%rip),%rsi        # 118020 <enable_paging+0xdff>
  104393:	48 89 74 d1 08       	mov    %rsi,0x8(%rcx,%rdx,8)
  104398:	c6 44 d1 10 00       	movb   $0x0,0x10(%rcx,%rdx,8)
  10439d:	48 ff c0             	inc    %rax
  1043a0:	48 89 43 18          	mov    %rax,0x18(%rbx)
  1043a4:	5b                   	pop    %rbx
  1043a5:	41 5e                	pop    %r14
  1043a7:	41 5f                	pop    %r15
  1043a9:	c3                   	ret
  1043aa:	bf 08 00 00 00       	mov    $0x8,%edi
  1043af:	be 18 00 00 00       	mov    $0x18,%esi
  1043b4:	e8 a7 f1 00 00       	call   113560 <_ZN5alloc5alloc18handle_alloc_error17hb028c0b596ed5966E>
  1043b9:	0f 1f 80 00 00 00 00 	nopl   0x0(%rax)

00000000001043c0 <_ZN9nothingos4task8executor8Executor5spawn17he526c18299e78242E>:
  1043c0:	41 57                	push   %r15
  1043c2:	41 56                	push   %r14
  1043c4:	53                   	push   %rbx
  1043c5:	49 89 f7             	mov    %rsi,%r15
  1043c8:	48 89 fb             	mov    %rdi,%rbx
  1043cb:	48 8d 05 2f 7c 01 00 	lea    0x17c2f(%rip),%rax        # 11c001 <__rust_no_alloc_shim_is_unstable>
  1043d2:	0f b6 00             	movzbl (%rax),%eax
  1043d5:	bf 18 00 00 00       	mov    $0x18,%edi
  1043da:	be 08 00 00 00       	mov    $0x8,%esi
  1043df:	e8 9c 0f 00 00       	call   105380 <__rust_alloc>
  1043e4:	48 85 c0             	test   %rax,%rax
  1043e7:	74 71                	je     10445a <_ZN9nothingos4task8executor8Executor5spawn17he526c18299e78242E+0x9a>
  1043e9:	49 89 c6             	mov    %rax,%r14
  1043ec:	49 8b 47 10          	mov    0x10(%r15),%rax
  1043f0:	49 89 46 10          	mov    %rax,0x10(%r14)
  1043f4:	49 8b 07             	mov    (%r15),%rax
  1043f7:	49 8b 4f 08          	mov    0x8(%r15),%rcx
  1043fb:	49 89 4e 08          	mov    %rcx,0x8(%r14)
  1043ff:	49 89 06             	mov    %rax,(%r14)
  104402:	48 8b 0b             	mov    (%rbx),%rcx
  104405:	48 8b 43 18          	mov    0x18(%rbx),%rax
  104409:	48 39 c8             	cmp    %rcx,%rax
  10440c:	75 0f                	jne    10441d <_ZN9nothingos4task8executor8Executor5spawn17he526c18299e78242E+0x5d>
  10440e:	48 89 df             	mov    %rbx,%rdi
  104411:	e8 6a fc ff ff       	call   104080 <_ZN5alloc11collections9vec_deque21VecDeque$LT$T$C$A$GT$4grow17h1d3637f788244cf5E>
  104416:	48 8b 0b             	mov    (%rbx),%rcx
  104419:	48 8b 43 18          	mov    0x18(%rbx),%rax
  10441d:	48 8b 53 10          	mov    0x10(%rbx),%rdx
  104421:	48 01 c2             	add    %rax,%rdx
  104424:	31 f6                	xor    %esi,%esi
  104426:	48 39 ca             	cmp    %rcx,%rdx
  104429:	48 0f 43 f1          	cmovae %rcx,%rsi
  10442d:	48 29 f2             	sub    %rsi,%rdx
  104430:	48 8b 4b 08          	mov    0x8(%rbx),%rcx
  104434:	48 8d 14 52          	lea    (%rdx,%rdx,2),%rdx
  104438:	4c 89 34 d1          	mov    %r14,(%rcx,%rdx,8)
  10443c:	48 8d 35 fd 3b 01 00 	lea    0x13bfd(%rip),%rsi        # 118040 <enable_paging+0xe1f>
  104443:	48 89 74 d1 08       	mov    %rsi,0x8(%rcx,%rdx,8)
  104448:	c6 44 d1 10 01       	movb   $0x1,0x10(%rcx,%rdx,8)
  10444d:	48 ff c0             	inc    %rax
  104450:	48 89 43 18          	mov    %rax,0x18(%rbx)
  104454:	5b                   	pop    %rbx
  104455:	41 5e                	pop    %r14
  104457:	41 5f                	pop    %r15
  104459:	c3                   	ret
  10445a:	bf 08 00 00 00       	mov    $0x8,%edi
  10445f:	be 18 00 00 00       	mov    $0x18,%esi
  104464:	e8 f7 f0 00 00       	call   113560 <_ZN5alloc5alloc18handle_alloc_error17hb028c0b596ed5966E>
  104469:	0f 1f 80 00 00 00 00 	nopl   0x0(%rax)

0000000000104470 <_ZN9nothingos4task8executor8Executor5spawn17heb7d5ce9cc5003daE>:
  104470:	41 57                	push   %r15
  104472:	41 56                	push   %r14
  104474:	53                   	push   %rbx
  104475:	49 89 f7             	mov    %rsi,%r15
  104478:	48 89 fb             	mov    %rdi,%rbx
  10447b:	48 8d 05 7f 7b 01 00 	lea    0x17b7f(%rip),%rax        # 11c001 <__rust_no_alloc_shim_is_unstable>
  104482:	0f b6 00             	movzbl (%rax),%eax
  104485:	bf 10 00 00 00       	mov    $0x10,%edi
  10448a:	be 08 00 00 00       	mov    $0x8,%esi
  10448f:	e8 ec 0e 00 00       	call   105380 <__rust_alloc>
  104494:	48 85 c0             	test   %rax,%rax
  104497:	74 69                	je     104502 <_ZN9nothingos4task8executor8Executor5spawn17heb7d5ce9cc5003daE+0x92>
  104499:	49 89 c6             	mov    %rax,%r14
  10449c:	49 8b 07             	mov    (%r15),%rax
  10449f:	49 8b 4f 08          	mov    0x8(%r15),%rcx
  1044a3:	49 89 4e 08          	mov    %rcx,0x8(%r14)
  1044a7:	49 89 06             	mov    %rax,(%r14)
  1044aa:	48 8b 0b             	mov    (%rbx),%rcx
  1044ad:	48 8b 43 18          	mov    0x18(%rbx),%rax
  1044b1:	48 39 c8             	cmp    %rcx,%rax
  1044b4:	75 0f                	jne    1044c5 <_ZN9nothingos4task8executor8Executor5spawn17heb7d5ce9cc5003daE+0x55>
  1044b6:	48 89 df             	mov    %rbx,%rdi
  1044b9:	e8 c2 fb ff ff       	call   104080 <_ZN5alloc11collections9vec_deque21VecDeque$LT$T$C$A$GT$4grow17h1d3637f788244cf5E>
  1044be:	48 8b 0b             	mov    (%rbx),%rcx
  1044c1:	48 8b 43 18          	mov    0x18(%rbx),%rax
  1044c5:	48 8b 53 10          	mov    0x10(%rbx),%rdx
  1044c9:	48 01 c2             	add    %rax,%rdx
  1044cc:	31 f6                	xor    %esi,%esi
  1044ce:	48 39 ca             	cmp    %rcx,%rdx
  1044d1:	48 0f 43 f1          	cmovae %rcx,%rsi
  1044d5:	48 29 f2             	sub    %rsi,%rdx
  1044d8:	48 8b 4b 08          	mov    0x8(%rbx),%rcx
  1044dc:	48 8d 14 52          	lea    (%rdx,%rdx,2),%rdx
  1044e0:	4c 89 34 d1          	mov    %r14,(%rcx,%rdx,8)
  1044e4:	48 8d 35 75 3b 01 00 	lea    0x13b75(%rip),%rsi        # 118060 <enable_paging+0xe3f>
  1044eb:	48 89 74 d1 08       	mov    %rsi,0x8(%rcx,%rdx,8)
  1044f0:	c6 44 d1 10 01       	movb   $0x1,0x10(%rcx,%rdx,8)
  1044f5:	48 ff c0             	inc    %rax
  1044f8:	48 89 43 18          	mov    %rax,0x18(%rbx)
  1044fc:	5b                   	pop    %rbx
  1044fd:	41 5e                	pop    %r14
  1044ff:	41 5f                	pop    %r15
  104501:	c3                   	ret
  104502:	bf 08 00 00 00       	mov    $0x8,%edi
  104507:	be 10 00 00 00       	mov    $0x10,%esi
  10450c:	e8 4f f0 00 00       	call   113560 <_ZN5alloc5alloc18handle_alloc_error17hb028c0b596ed5966E>
  104511:	66 2e 0f 1f 84 00 00 	cs nopw 0x0(%rax,%rax,1)
  104518:	00 00 00 
  10451b:	0f 1f 44 00 00       	nopl   0x0(%rax,%rax,1)

0000000000104520 <_ZN9nothingos6driver5timer10timer_task28_$u7b$$u7b$closure$u7d$$u7d$17h3a920dc567d8893eE>:
  104520:	41 56                	push   %r14
  104522:	53                   	push   %rbx
  104523:	50                   	push   %rax
  104524:	49 89 f6             	mov    %rsi,%r14
  104527:	48 89 fb             	mov    %rdi,%rbx
  10452a:	80 7f 08 00          	cmpb   $0x0,0x8(%rdi)
  10452e:	75 08                	jne    104538 <_ZN9nothingos6driver5timer10timer_task28_$u7b$$u7b$closure$u7d$$u7d$17h3a920dc567d8893eE+0x18>
  104530:	e8 7b 26 00 00       	call   106bb0 <_ZN9nothingos6driver5timer9next_tick17hd1ada971b7dd8542E>
  104535:	48 89 03             	mov    %rax,(%rbx)
  104538:	48 89 df             	mov    %rbx,%rdi
  10453b:	4c 89 f6             	mov    %r14,%rsi
  10453e:	e8 7d 26 00 00       	call   106bc0 <_ZN83_$LT$nothingos..driver..timer..NextTick$u20$as$u20$core..future..future..Future$GT$4poll17h6e8b4a32b680f1eeE>
  104543:	48 85 c0             	test   %rax,%rax
  104546:	74 e8                	je     104530 <_ZN9nothingos6driver5timer10timer_task28_$u7b$$u7b$closure$u7d$$u7d$17h3a920dc567d8893eE+0x10>
  104548:	c6 43 08 03          	movb   $0x3,0x8(%rbx)
  10454c:	b0 01                	mov    $0x1,%al
  10454e:	48 83 c4 08          	add    $0x8,%rsp
  104552:	5b                   	pop    %rbx
  104553:	41 5e                	pop    %r14
  104555:	c3                   	ret
  104556:	66 2e 0f 1f 84 00 00 	cs nopw 0x0(%rax,%rax,1)
  10455d:	00 00 00 

0000000000104560 <_ZN9nothingos6driver8keyboard13keyboard_task28_$u7b$$u7b$closure$u7d$$u7d$17h1e52f65de995bee2E>:
  104560:	41 56                	push   %r14
  104562:	53                   	push   %rbx
  104563:	48 83 ec 48          	sub    $0x48,%rsp
  104567:	49 89 f6             	mov    %rsi,%r14
  10456a:	48 89 fb             	mov    %rdi,%rbx
  10456d:	80 7f 14 00          	cmpb   $0x0,0x14(%rdi)
  104571:	75 16                	jne    104589 <_ZN9nothingos6driver8keyboard13keyboard_task28_$u7b$$u7b$closure$u7d$$u7d$17h1e52f65de995bee2E+0x29>
  104573:	48 c7 43 08 00 00 00 	movq   $0x0,0x8(%rbx)
  10457a:	00 
  10457b:	c7 43 10 01 00 00 01 	movl   $0x1000001,0x10(%rbx)
  104582:	48 8d 43 08          	lea    0x8(%rbx),%rax
  104586:	48 89 03             	mov    %rax,(%rbx)
  104589:	48 8d 7b 15          	lea    0x15(%rbx),%rdi
  10458d:	4c 89 f6             	mov    %r14,%rsi
  104590:	e8 6b 2a 00 00       	call   107000 <_ZN90_$LT$nothingos..driver..keyboard..NextScancode$u20$as$u20$core..future..future..Future$GT$4poll17hbc543aca345a49d6E>
  104595:	a8 01                	test   $0x1,%al
  104597:	0f 85 02 01 00 00    	jne    10469f <_ZN9nothingos6driver8keyboard13keyboard_task28_$u7b$$u7b$closure$u7d$$u7d$17h1e52f65de995bee2E+0x13f>
  10459d:	48 8b 3b             	mov    (%rbx),%rdi
  1045a0:	48 83 c7 03          	add    $0x3,%rdi
  1045a4:	0f b6 f2             	movzbl %dl,%esi
  1045a7:	e8 c4 e3 00 00       	call   112970 <_ZN81_$LT$pc_keyboard..scancodes..ScancodeSet1$u20$as$u20$pc_keyboard..ScancodeSet$GT$13advance_state17h7c9b35f3864720b7E>
  1045ac:	89 c1                	mov    %eax,%ecx
  1045ae:	81 e1 fe 00 00 00    	and    $0xfe,%ecx
  1045b4:	66 83 f9 02          	cmp    $0x2,%cx
  1045b8:	74 c8                	je     104582 <_ZN9nothingos6driver8keyboard13keyboard_task28_$u7b$$u7b$closure$u7d$$u7d$17h1e52f65de995bee2E+0x22>
  1045ba:	0f b7 c8             	movzwl %ax,%ecx
  1045bd:	c1 e9 08             	shr    $0x8,%ecx
  1045c0:	83 f9 39             	cmp    $0x39,%ecx
  1045c3:	7f 2b                	jg     1045f0 <_ZN9nothingos6driver8keyboard13keyboard_task28_$u7b$$u7b$closure$u7d$$u7d$17h1e52f65de995bee2E+0x90>
  1045c5:	89 ca                	mov    %ecx,%edx
  1045c7:	ff ca                	dec    %edx
  1045c9:	83 fa 0d             	cmp    $0xd,%edx
  1045cc:	0f 87 8f 00 00 00    	ja     104661 <_ZN9nothingos6driver8keyboard13keyboard_task28_$u7b$$u7b$closure$u7d$$u7d$17h1e52f65de995bee2E+0x101>
  1045d2:	48 8d 35 27 ba ff ff 	lea    -0x45d9(%rip),%rsi        # 100000 <str.1-0x2f0>
  1045d9:	48 63 14 96          	movslq (%rsi,%rdx,4),%rdx
  1045dd:	48 01 f2             	add    %rsi,%rdx
  1045e0:	ff e2                	jmp    *%rdx
  1045e2:	a8 01                	test   $0x1,%al
  1045e4:	0f 85 cc 00 00 00    	jne    1046b6 <_ZN9nothingos6driver8keyboard13keyboard_task28_$u7b$$u7b$closure$u7d$$u7d$17h1e52f65de995bee2E+0x156>
  1045ea:	c6 43 12 00          	movb   $0x0,0x12(%rbx)
  1045ee:	eb 92                	jmp    104582 <_ZN9nothingos6driver8keyboard13keyboard_task28_$u7b$$u7b$closure$u7d$$u7d$17h1e52f65de995bee2E+0x22>
  1045f0:	83 f9 3a             	cmp    $0x3a,%ecx
  1045f3:	74 4e                	je     104643 <_ZN9nothingos6driver8keyboard13keyboard_task28_$u7b$$u7b$closure$u7d$$u7d$17h1e52f65de995bee2E+0xe3>
  1045f5:	83 f9 46             	cmp    $0x46,%ecx
  1045f8:	74 5a                	je     104654 <_ZN9nothingos6driver8keyboard13keyboard_task28_$u7b$$u7b$closure$u7d$$u7d$17h1e52f65de995bee2E+0xf4>
  1045fa:	83 f9 47             	cmp    $0x47,%ecx
  1045fd:	75 62                	jne    104661 <_ZN9nothingos6driver8keyboard13keyboard_task28_$u7b$$u7b$closure$u7d$$u7d$17h1e52f65de995bee2E+0x101>
  1045ff:	a8 01                	test   $0x1,%al
  104601:	0f 85 c1 00 00 00    	jne    1046c8 <_ZN9nothingos6driver8keyboard13keyboard_task28_$u7b$$u7b$closure$u7d$$u7d$17h1e52f65de995bee2E+0x168>
  104607:	c6 43 0d 00          	movb   $0x0,0xd(%rbx)
  10460b:	e9 72 ff ff ff       	jmp    104582 <_ZN9nothingos6driver8keyboard13keyboard_task28_$u7b$$u7b$closure$u7d$$u7d$17h1e52f65de995bee2E+0x22>
  104610:	a8 01                	test   $0x1,%al
  104612:	0f 85 95 00 00 00    	jne    1046ad <_ZN9nothingos6driver8keyboard13keyboard_task28_$u7b$$u7b$closure$u7d$$u7d$17h1e52f65de995bee2E+0x14d>
  104618:	c6 43 0e 00          	movb   $0x0,0xe(%rbx)
  10461c:	e9 61 ff ff ff       	jmp    104582 <_ZN9nothingos6driver8keyboard13keyboard_task28_$u7b$$u7b$closure$u7d$$u7d$17h1e52f65de995bee2E+0x22>
  104621:	a8 01                	test   $0x1,%al
  104623:	0f 85 96 00 00 00    	jne    1046bf <_ZN9nothingos6driver8keyboard13keyboard_task28_$u7b$$u7b$closure$u7d$$u7d$17h1e52f65de995bee2E+0x15f>
  104629:	c6 43 0f 00          	movb   $0x0,0xf(%rbx)
  10462d:	e9 50 ff ff ff       	jmp    104582 <_ZN9nothingos6driver8keyboard13keyboard_task28_$u7b$$u7b$closure$u7d$$u7d$17h1e52f65de995bee2E+0x22>
  104632:	a8 01                	test   $0x1,%al
  104634:	0f 84 48 ff ff ff    	je     104582 <_ZN9nothingos6driver8keyboard13keyboard_task28_$u7b$$u7b$closure$u7d$$u7d$17h1e52f65de995bee2E+0x22>
  10463a:	80 73 11 01          	xorb   $0x1,0x11(%rbx)
  10463e:	e9 3f ff ff ff       	jmp    104582 <_ZN9nothingos6driver8keyboard13keyboard_task28_$u7b$$u7b$closure$u7d$$u7d$17h1e52f65de995bee2E+0x22>
  104643:	a8 01                	test   $0x1,%al
  104645:	0f 84 37 ff ff ff    	je     104582 <_ZN9nothingos6driver8keyboard13keyboard_task28_$u7b$$u7b$closure$u7d$$u7d$17h1e52f65de995bee2E+0x22>
  10464b:	80 73 10 01          	xorb   $0x1,0x10(%rbx)
  10464f:	e9 2e ff ff ff       	jmp    104582 <_ZN9nothingos6driver8keyboard13keyboard_task28_$u7b$$u7b$closure$u7d$$u7d$17h1e52f65de995bee2E+0x22>
  104654:	a8 01                	test   $0x1,%al
  104656:	75 79                	jne    1046d1 <_ZN9nothingos6driver8keyboard13keyboard_task28_$u7b$$u7b$closure$u7d$$u7d$17h1e52f65de995bee2E+0x171>
  104658:	c6 43 0c 00          	movb   $0x0,0xc(%rbx)
  10465c:	e9 21 ff ff ff       	jmp    104582 <_ZN9nothingos6driver8keyboard13keyboard_task28_$u7b$$u7b$closure$u7d$$u7d$17h1e52f65de995bee2E+0x22>
  104661:	a8 01                	test   $0x1,%al
  104663:	0f 84 19 ff ff ff    	je     104582 <_ZN9nothingos6driver8keyboard13keyboard_task28_$u7b$$u7b$closure$u7d$$u7d$17h1e52f65de995bee2E+0x22>
  104669:	48 8d 73 0c          	lea    0xc(%rbx),%rsi
  10466d:	0f b6 53 13          	movzbl 0x13(%rbx),%edx
  104671:	0f b6 f9             	movzbl %cl,%edi
  104674:	e8 67 d5 00 00       	call   111be0 <_ZN85_$LT$pc_keyboard..layouts..us104..Us104Key$u20$as$u20$pc_keyboard..KeyboardLayout$GT$11map_keycode17h9fd1d686e31ed3aeE>
  104679:	3c 02                	cmp    $0x2,%al
  10467b:	0f 84 01 ff ff ff    	je     104582 <_ZN9nothingos6driver8keyboard13keyboard_task28_$u7b$$u7b$closure$u7d$$u7d$17h1e52f65de995bee2E+0x22>
  104681:	48 8d 4c 24 04       	lea    0x4(%rsp),%rcx
  104686:	a8 01                	test   $0x1,%al
  104688:	75 50                	jne    1046da <_ZN9nothingos6driver8keyboard13keyboard_task28_$u7b$$u7b$closure$u7d$$u7d$17h1e52f65de995bee2E+0x17a>
  10468a:	c1 e8 08             	shr    $0x8,%eax
  10468d:	88 44 24 04          	mov    %al,0x4(%rsp)
  104691:	48 89 4c 24 08       	mov    %rcx,0x8(%rsp)
  104696:	48 8d 05 b3 f9 ff ff 	lea    -0x64d(%rip),%rax        # 104050 <_ZN57_$LT$pc_keyboard..KeyCode$u20$as$u20$core..fmt..Debug$GT$3fmt17he54d9a93c567e557E>
  10469d:	eb 4f                	jmp    1046ee <_ZN9nothingos6driver8keyboard13keyboard_task28_$u7b$$u7b$closure$u7d$$u7d$17h1e52f65de995bee2E+0x18e>
  10469f:	c6 43 14 03          	movb   $0x3,0x14(%rbx)
  1046a3:	b0 01                	mov    $0x1,%al
  1046a5:	48 83 c4 48          	add    $0x48,%rsp
  1046a9:	5b                   	pop    %rbx
  1046aa:	41 5e                	pop    %r14
  1046ac:	c3                   	ret
  1046ad:	c6 43 0e 01          	movb   $0x1,0xe(%rbx)
  1046b1:	e9 cc fe ff ff       	jmp    104582 <_ZN9nothingos6driver8keyboard13keyboard_task28_$u7b$$u7b$closure$u7d$$u7d$17h1e52f65de995bee2E+0x22>
  1046b6:	c6 43 12 01          	movb   $0x1,0x12(%rbx)
  1046ba:	e9 c3 fe ff ff       	jmp    104582 <_ZN9nothingos6driver8keyboard13keyboard_task28_$u7b$$u7b$closure$u7d$$u7d$17h1e52f65de995bee2E+0x22>
  1046bf:	c6 43 0f 01          	movb   $0x1,0xf(%rbx)
  1046c3:	e9 ba fe ff ff       	jmp    104582 <_ZN9nothingos6driver8keyboard13keyboard_task28_$u7b$$u7b$closure$u7d$$u7d$17h1e52f65de995bee2E+0x22>
  1046c8:	c6 43 0d 01          	movb   $0x1,0xd(%rbx)
  1046cc:	e9 b1 fe ff ff       	jmp    104582 <_ZN9nothingos6driver8keyboard13keyboard_task28_$u7b$$u7b$closure$u7d$$u7d$17h1e52f65de995bee2E+0x22>
  1046d1:	c6 43 0c 01          	movb   $0x1,0xc(%rbx)
  1046d5:	e9 a8 fe ff ff       	jmp    104582 <_ZN9nothingos6driver8keyboard13keyboard_task28_$u7b$$u7b$closure$u7d$$u7d$17h1e52f65de995bee2E+0x22>
  1046da:	48 c1 e8 20          	shr    $0x20,%rax
  1046de:	89 44 24 04          	mov    %eax,0x4(%rsp)
  1046e2:	48 89 4c 24 08       	mov    %rcx,0x8(%rsp)
  1046e7:	48 8d 05 b2 02 01 00 	lea    0x102b2(%rip),%rax        # 1149a0 <_ZN43_$LT$char$u20$as$u20$core..fmt..Display$GT$3fmt17h908863cd5bdb31a9E>
  1046ee:	48 89 44 24 10       	mov    %rax,0x10(%rsp)
  1046f3:	48 8d 05 86 39 01 00 	lea    0x13986(%rip),%rax        # 118080 <enable_paging+0xe5f>
  1046fa:	48 89 44 24 18       	mov    %rax,0x18(%rsp)
  1046ff:	48 c7 44 24 20 01 00 	movq   $0x1,0x20(%rsp)
  104706:	00 00 
  104708:	48 c7 44 24 38 00 00 	movq   $0x0,0x38(%rsp)
  10470f:	00 00 
  104711:	48 8d 44 24 08       	lea    0x8(%rsp),%rax
  104716:	48 89 44 24 28       	mov    %rax,0x28(%rsp)
  10471b:	48 c7 44 24 30 01 00 	movq   $0x1,0x30(%rsp)
  104722:	00 00 
  104724:	48 8d 7c 24 18       	lea    0x18(%rsp),%rdi
  104729:	e8 82 29 00 00       	call   1070b0 <_ZN9nothingos5print6_print17h4080501cdf937b7dE>
  10472e:	e9 4f fe ff ff       	jmp    104582 <_ZN9nothingos6driver8keyboard13keyboard_task28_$u7b$$u7b$closure$u7d$$u7d$17h1e52f65de995bee2E+0x22>
  104733:	66 2e 0f 1f 84 00 00 	cs nopw 0x0(%rax,%rax,1)
  10473a:	00 00 00 
  10473d:	0f 1f 00             	nopl   (%rax)

0000000000104740 <start>:
  104740:	41 56                	push   %r14
  104742:	53                   	push   %rbx
  104743:	48 83 ec 78          	sub    $0x78,%rsp
  104747:	48 89 fb             	mov    %rdi,%rbx
  10474a:	e8 41 2d 00 00       	call   107490 <_ZN9nothingos4init17hc8242e26dd7deee2E>
  10474f:	48 8d 05 3a 39 01 00 	lea    0x1393a(%rip),%rax        # 118090 <enable_paging+0xe6f>
  104756:	48 89 44 24 38       	mov    %rax,0x38(%rsp)
  10475b:	48 c7 44 24 40 01 00 	movq   $0x1,0x40(%rsp)
  104762:	00 00 
  104764:	48 c7 44 24 58 00 00 	movq   $0x0,0x58(%rsp)
  10476b:	00 00 
  10476d:	48 8d 05 c4 b8 ff ff 	lea    -0x473c(%rip),%rax        # 100038 <str.1-0x2b8>
  104774:	48 89 44 24 48       	mov    %rax,0x48(%rsp)
  104779:	48 c7 44 24 50 00 00 	movq   $0x0,0x50(%rsp)
  104780:	00 00 
  104782:	48 8d 7c 24 38       	lea    0x38(%rsp),%rdi
  104787:	e8 34 1e 00 00       	call   1065c0 <_ZN9nothingos6serial6_print17heaf67e8bbc7364c4E>
  10478c:	48 8d 7c 24 38       	lea    0x38(%rsp),%rdi
  104791:	e8 2a 4f 00 00       	call   1096c0 <_ZN9nothingos4task8executor8Executor3new17h6f243d605eb8f496E>
  104796:	48 b8 f8 03 f9 03 fa 	movabs $0x3fb03fa03f903f8,%rax
  10479d:	03 fb 03 
  1047a0:	48 89 44 24 2c       	mov    %rax,0x2c(%rsp)
  1047a5:	c7 44 24 34 fc 03 fd 	movl   $0x3fd03fc,0x34(%rsp)
  1047ac:	03 
  1047ad:	66 ba f9 03          	mov    $0x3f9,%dx
  1047b1:	31 c0                	xor    %eax,%eax
  1047b3:	ee                   	out    %al,(%dx)
  1047b4:	66 ba fb 03          	mov    $0x3fb,%dx
  1047b8:	b0 80                	mov    $0x80,%al
  1047ba:	ee                   	out    %al,(%dx)
  1047bb:	66 ba f8 03          	mov    $0x3f8,%dx
  1047bf:	b0 03                	mov    $0x3,%al
  1047c1:	ee                   	out    %al,(%dx)
  1047c2:	66 ba f9 03          	mov    $0x3f9,%dx
  1047c6:	31 c0                	xor    %eax,%eax
  1047c8:	ee                   	out    %al,(%dx)
  1047c9:	66 ba fb 03          	mov    $0x3fb,%dx
  1047cd:	b0 03                	mov    $0x3,%al
  1047cf:	ee                   	out    %al,(%dx)
  1047d0:	66 ba fa 03          	mov    $0x3fa,%dx
  1047d4:	b0 c7                	mov    $0xc7,%al
  1047d6:	ee                   	out    %al,(%dx)
  1047d7:	66 ba fc 03          	mov    $0x3fc,%dx
  1047db:	b0 0b                	mov    $0xb,%al
  1047dd:	ee                   	out    %al,(%dx)
  1047de:	66 ba f9 03          	mov    $0x3f9,%dx
  1047e2:	b0 01                	mov    $0x1,%al
  1047e4:	ee                   	out    %al,(%dx)
  1047e5:	48 8d 35 e4 ba ff ff 	lea    -0x451c(%rip),%rsi        # 1002d0 <str.1-0x20>
  1047ec:	48 8d 7c 24 2c       	lea    0x2c(%rsp),%rdi
  1047f1:	ba 0c 00 00 00       	mov    $0xc,%edx
  1047f6:	e8 25 c4 00 00       	call   110c20 <_ZN65_$LT$uart_16550..port..SerialPort$u20$as$u20$core..fmt..Write$GT$9write_str17hf4785e482fea3730E>
  1047fb:	84 c0                	test   %al,%al
  1047fd:	74 24                	je     104823 <start+0xe3>
  1047ff:	48 8d 3d d6 ba ff ff 	lea    -0x452a(%rip),%rdi        # 1002dc <str.1-0x14>
  104806:	48 8d 0d 93 38 01 00 	lea    0x13893(%rip),%rcx        # 1180a0 <enable_paging+0xe7f>
  10480d:	4c 8d 05 ac 38 01 00 	lea    0x138ac(%rip),%r8        # 1180c0 <enable_paging+0xe9f>
  104814:	48 8d 54 24 0f       	lea    0xf(%rsp),%rdx
  104819:	be 03 00 00 00       	mov    $0x3,%esi
  10481e:	e8 3d 25 01 00       	call   116d60 <_ZN4core6result13unwrap_failed17hf6308fed240e4aa6E>
  104823:	4c 8d 74 24 38       	lea    0x38(%rsp),%r14
  104828:	4c 89 f7             	mov    %r14,%rdi
  10482b:	e8 40 fa ff ff       	call   104270 <_ZN9nothingos4task8executor8Executor5spawn17h9ae2ed16e5081b63E>
  104830:	48 8d 43 18          	lea    0x18(%rbx),%rax
  104834:	48 83 c3 48          	add    $0x48,%rbx
  104838:	48 89 44 24 10       	mov    %rax,0x10(%rsp)
  10483d:	48 89 5c 24 18       	mov    %rbx,0x18(%rsp)
  104842:	c6 44 24 20 00       	movb   $0x0,0x20(%rsp)
  104847:	48 8d 74 24 10       	lea    0x10(%rsp),%rsi
  10484c:	4c 89 f7             	mov    %r14,%rdi
  10484f:	e8 bc fa ff ff       	call   104310 <_ZN9nothingos4task8executor8Executor5spawn17hdb2120aff8415fc7E>
  104854:	c6 44 24 18 00       	movb   $0x0,0x18(%rsp)
  104859:	48 8d 74 24 10       	lea    0x10(%rsp),%rsi
  10485e:	4c 89 f7             	mov    %r14,%rdi
  104861:	e8 0a fc ff ff       	call   104470 <_ZN9nothingos4task8executor8Executor5spawn17heb7d5ce9cc5003daE>
  104866:	c6 44 24 24 00       	movb   $0x0,0x24(%rsp)
  10486b:	48 8d 74 24 10       	lea    0x10(%rsp),%rsi
  104870:	4c 89 f7             	mov    %r14,%rdi
  104873:	e8 48 fb ff ff       	call   1043c0 <_ZN9nothingos4task8executor8Executor5spawn17he526c18299e78242E>
  104878:	4c 89 f7             	mov    %r14,%rdi
  10487b:	e8 f0 4e 00 00       	call   109770 <_ZN9nothingos4task8executor8Executor3run17h19bf81ea7c31277dE>

0000000000104880 <_ZN9nothingos5start28_$u7b$$u7b$closure$u7d$$u7d$17h7b90ac70f9755222E>:
  104880:	80 3f 00             	cmpb   $0x0,(%rdi)
  104883:	75 06                	jne    10488b <_ZN9nothingos5start28_$u7b$$u7b$closure$u7d$$u7d$17h7b90ac70f9755222E+0xb>
  104885:	c6 07 01             	movb   $0x1,(%rdi)
  104888:	31 c0                	xor    %eax,%eax
  10488a:	c3                   	ret
  10488b:	50                   	push   %rax
  10488c:	48 8d 3d 5d ba ff ff 	lea    -0x45a3(%rip),%rdi        # 1002f0 <str.1>
  104893:	48 8d 15 3e 38 01 00 	lea    0x1383e(%rip),%rdx        # 1180d8 <enable_paging+0xeb7>
  10489a:	be 23 00 00 00       	mov    $0x23,%esi
  10489f:	e8 1c 0c 01 00       	call   1154c0 <_ZN4core9panicking5panic17ha6ab4147e8d76f59E>
  1048a4:	66 2e 0f 1f 84 00 00 	cs nopw 0x0(%rax,%rax,1)
  1048ab:	00 00 00 
  1048ae:	66 90                	xchg   %ax,%ax

00000000001048b0 <_ZN9nothingos5start28_$u7b$$u7b$closure$u7d$$u7d$17hfd47a7407b3c260aE>:
  1048b0:	41 57                	push   %r15
  1048b2:	41 56                	push   %r14
  1048b4:	53                   	push   %rbx
  1048b5:	80 7f 10 00          	cmpb   $0x0,0x10(%rdi)
  1048b9:	0f 85 19 01 00 00    	jne    1049d8 <_ZN9nothingos5start28_$u7b$$u7b$closure$u7d$$u7d$17hfd47a7407b3c260aE+0x128>
  1048bf:	48 89 fb             	mov    %rdi,%rbx
  1048c2:	48 8b 07             	mov    (%rdi),%rax
  1048c5:	48 8d 78 0c          	lea    0xc(%rax),%rdi
  1048c9:	44 8b 70 10          	mov    0x10(%rax),%r14d
  1048cd:	44 8b 78 14          	mov    0x14(%rax),%r15d
  1048d1:	e8 3a c6 00 00       	call   110f10 <_ZN4uefi5proto7console3gop8ModeInfo12pixel_format17h8fc05097d280018cE>
  1048d6:	85 c0                	test   %eax,%eax
  1048d8:	74 1f                	je     1048f9 <_ZN9nothingos5start28_$u7b$$u7b$closure$u7d$$u7d$17hfd47a7407b3c260aE+0x49>
  1048da:	48 8b 3b             	mov    (%rbx),%rdi
  1048dd:	48 83 c7 0c          	add    $0xc,%rdi
  1048e1:	e8 2a c6 00 00       	call   110f10 <_ZN4uefi5proto7console3gop8ModeInfo12pixel_format17h8fc05097d280018cE>
  1048e6:	4d 85 ff             	test   %r15,%r15
  1048e9:	0f 84 dd 00 00 00    	je     1049cc <_ZN9nothingos5start28_$u7b$$u7b$closure$u7d$$u7d$17hfd47a7407b3c260aE+0x11c>
  1048ef:	83 f8 01             	cmp    $0x1,%eax
  1048f2:	74 0e                	je     104902 <_ZN9nothingos5start28_$u7b$$u7b$closure$u7d$$u7d$17hfd47a7407b3c260aE+0x52>
  1048f4:	e9 d3 00 00 00       	jmp    1049cc <_ZN9nothingos5start28_$u7b$$u7b$closure$u7d$$u7d$17hfd47a7407b3c260aE+0x11c>
  1048f9:	4d 85 ff             	test   %r15,%r15
  1048fc:	0f 84 ca 00 00 00    	je     1049cc <_ZN9nothingos5start28_$u7b$$u7b$closure$u7d$$u7d$17hfd47a7407b3c260aE+0x11c>
  104902:	4d 85 f6             	test   %r14,%r14
  104905:	0f 84 c1 00 00 00    	je     1049cc <_ZN9nothingos5start28_$u7b$$u7b$closure$u7d$$u7d$17hfd47a7407b3c260aE+0x11c>
  10490b:	44 89 f0             	mov    %r14d,%eax
  10490e:	83 e0 03             	and    $0x3,%eax
  104911:	44 89 f1             	mov    %r14d,%ecx
  104914:	83 e1 fc             	and    $0xfffffffc,%ecx
  104917:	4a 8d 14 b5 00 00 00 	lea    0x0(,%r14,4),%rdx
  10491e:	00 
  10491f:	31 f6                	xor    %esi,%esi
  104921:	31 ff                	xor    %edi,%edi
  104923:	45 31 c0             	xor    %r8d,%r8d
  104926:	eb 1a                	jmp    104942 <_ZN9nothingos5start28_$u7b$$u7b$closure$u7d$$u7d$17hfd47a7407b3c260aE+0x92>
  104928:	0f 1f 84 00 00 00 00 	nopl   0x0(%rax,%rax,1)
  10492f:	00 
  104930:	49 ff c0             	inc    %r8
  104933:	48 01 d7             	add    %rdx,%rdi
  104936:	4c 01 f6             	add    %r14,%rsi
  104939:	4d 39 f8             	cmp    %r15,%r8
  10493c:	0f 84 8a 00 00 00    	je     1049cc <_ZN9nothingos5start28_$u7b$$u7b$closure$u7d$$u7d$17hfd47a7407b3c260aE+0x11c>
  104942:	45 31 c9             	xor    %r9d,%r9d
  104945:	41 83 fe 04          	cmp    $0x4,%r14d
  104949:	72 59                	jb     1049a4 <_ZN9nothingos5start28_$u7b$$u7b$closure$u7d$$u7d$17hfd47a7407b3c260aE+0xf4>
  10494b:	0f 1f 44 00 00       	nopl   0x0(%rax,%rax,1)
  104950:	4c 8b 53 08          	mov    0x8(%rbx),%r10
  104954:	4d 8b 12             	mov    (%r10),%r10
  104957:	49 01 fa             	add    %rdi,%r10
  10495a:	43 c7 04 8a 00 ff ff 	movl   $0xffff00,(%r10,%r9,4)
  104961:	00 
  104962:	4c 8b 53 08          	mov    0x8(%rbx),%r10
  104966:	4d 8b 12             	mov    (%r10),%r10
  104969:	49 01 fa             	add    %rdi,%r10
  10496c:	43 c7 44 8a 04 00 ff 	movl   $0xffff00,0x4(%r10,%r9,4)
  104973:	ff 00 
  104975:	4c 8b 53 08          	mov    0x8(%rbx),%r10
  104979:	4d 8b 12             	mov    (%r10),%r10
  10497c:	49 01 fa             	add    %rdi,%r10
  10497f:	43 c7 44 8a 08 00 ff 	movl   $0xffff00,0x8(%r10,%r9,4)
  104986:	ff 00 
  104988:	4c 8b 53 08          	mov    0x8(%rbx),%r10
  10498c:	4d 8b 12             	mov    (%r10),%r10
  10498f:	49 01 fa             	add    %rdi,%r10
  104992:	43 c7 44 8a 0c 00 ff 	movl   $0xffff00,0xc(%r10,%r9,4)
  104999:	ff 00 
  10499b:	49 83 c1 04          	add    $0x4,%r9
  10499f:	4c 39 c9             	cmp    %r9,%rcx
  1049a2:	75 ac                	jne    104950 <_ZN9nothingos5start28_$u7b$$u7b$closure$u7d$$u7d$17hfd47a7407b3c260aE+0xa0>
  1049a4:	48 85 c0             	test   %rax,%rax
  1049a7:	74 87                	je     104930 <_ZN9nothingos5start28_$u7b$$u7b$closure$u7d$$u7d$17hfd47a7407b3c260aE+0x80>
  1049a9:	49 01 f1             	add    %rsi,%r9
  1049ac:	49 89 c2             	mov    %rax,%r10
  1049af:	90                   	nop
  1049b0:	4c 8b 5b 08          	mov    0x8(%rbx),%r11
  1049b4:	4d 8b 1b             	mov    (%r11),%r11
  1049b7:	43 c7 04 8b 00 ff ff 	movl   $0xffff00,(%r11,%r9,4)
  1049be:	00 
  1049bf:	49 ff c1             	inc    %r9
  1049c2:	49 ff ca             	dec    %r10
  1049c5:	75 e9                	jne    1049b0 <_ZN9nothingos5start28_$u7b$$u7b$closure$u7d$$u7d$17hfd47a7407b3c260aE+0x100>
  1049c7:	e9 64 ff ff ff       	jmp    104930 <_ZN9nothingos5start28_$u7b$$u7b$closure$u7d$$u7d$17hfd47a7407b3c260aE+0x80>
  1049cc:	c6 43 10 01          	movb   $0x1,0x10(%rbx)
  1049d0:	31 c0                	xor    %eax,%eax
  1049d2:	5b                   	pop    %rbx
  1049d3:	41 5e                	pop    %r14
  1049d5:	41 5f                	pop    %r15
  1049d7:	c3                   	ret
  1049d8:	48 8d 3d 11 b9 ff ff 	lea    -0x46ef(%rip),%rdi        # 1002f0 <str.1>
  1049df:	48 8d 15 0a 37 01 00 	lea    0x1370a(%rip),%rdx        # 1180f0 <enable_paging+0xecf>
  1049e6:	be 23 00 00 00       	mov    $0x23,%esi
  1049eb:	e8 d0 0a 01 00       	call   1154c0 <_ZN4core9panicking5panic17ha6ab4147e8d76f59E>

00000000001049f0 <__rust_alloc_error_handler>:
  1049f0:	e9 7b eb 00 00       	jmp    113570 <__rdl_oom>
  1049f5:	66 2e 0f 1f 84 00 00 	cs nopw 0x0(%rax,%rax,1)
  1049fc:	00 00 00 
  1049ff:	90                   	nop

0000000000104a00 <_ZN106_$LT$elf_rs..elf_header..elf_header..ElfHeaderGen$LT$T$GT$$u20$as$u20$elf_rs..elf_header..ElfHeaderRaw$GT$10endianness17hbcf4a4a0c353cbaaE>:
  104a00:	0f b6 57 05          	movzbl 0x5(%rdi),%edx
  104a04:	80 fa 02             	cmp    $0x2,%dl
  104a07:	0f 94 c0             	sete   %al
  104a0a:	b1 02                	mov    $0x2,%cl
  104a0c:	28 c1                	sub    %al,%cl
  104a0e:	31 f6                	xor    %esi,%esi
  104a10:	80 fa 01             	cmp    $0x1,%dl
  104a13:	0f b6 c1             	movzbl %cl,%eax
  104a16:	0f 44 c6             	cmove  %esi,%eax
  104a19:	c3                   	ret
  104a1a:	66 0f 1f 44 00 00    	nopw   0x0(%rax,%rax,1)

0000000000104a20 <_ZN106_$LT$elf_rs..elf_header..elf_header..ElfHeaderGen$LT$T$GT$$u20$as$u20$elf_rs..elf_header..ElfHeaderRaw$GT$10endianness17he6708fa7db72160cE>:
  104a20:	0f b6 57 05          	movzbl 0x5(%rdi),%edx
  104a24:	80 fa 02             	cmp    $0x2,%dl
  104a27:	0f 94 c0             	sete   %al
  104a2a:	b1 02                	mov    $0x2,%cl
  104a2c:	28 c1                	sub    %al,%cl
  104a2e:	31 f6                	xor    %esi,%esi
  104a30:	80 fa 01             	cmp    $0x1,%dl
  104a33:	0f b6 c1             	movzbl %cl,%eax
  104a36:	0f 44 c6             	cmove  %esi,%eax
  104a39:	c3                   	ret
  104a3a:	66 0f 1f 44 00 00    	nopw   0x0(%rax,%rax,1)

0000000000104a40 <_ZN106_$LT$elf_rs..elf_header..elf_header..ElfHeaderGen$LT$T$GT$$u20$as$u20$elf_rs..elf_header..ElfHeaderRaw$GT$11abi_version17hbb365a7d16fc9f9aE>:
  104a40:	0f b6 47 08          	movzbl 0x8(%rdi),%eax
  104a44:	c3                   	ret
  104a45:	66 2e 0f 1f 84 00 00 	cs nopw 0x0(%rax,%rax,1)
  104a4c:	00 00 00 
  104a4f:	90                   	nop

0000000000104a50 <_ZN106_$LT$elf_rs..elf_header..elf_header..ElfHeaderGen$LT$T$GT$$u20$as$u20$elf_rs..elf_header..ElfHeaderRaw$GT$11abi_version17hdee1ea817afbad57E>:
  104a50:	0f b6 47 08          	movzbl 0x8(%rdi),%eax
  104a54:	c3                   	ret
  104a55:	66 2e 0f 1f 84 00 00 	cs nopw 0x0(%rax,%rax,1)
  104a5c:	00 00 00 
  104a5f:	90                   	nop

0000000000104a60 <_ZN106_$LT$elf_rs..elf_header..elf_header..ElfHeaderGen$LT$T$GT$$u20$as$u20$elf_rs..elf_header..ElfHeaderRaw$GT$14header_version17h051882d45eac8ea6E>:
  104a60:	0f b6 47 06          	movzbl 0x6(%rdi),%eax
  104a64:	c3                   	ret
  104a65:	66 2e 0f 1f 84 00 00 	cs nopw 0x0(%rax,%rax,1)
  104a6c:	00 00 00 
  104a6f:	90                   	nop

0000000000104a70 <_ZN106_$LT$elf_rs..elf_header..elf_header..ElfHeaderGen$LT$T$GT$$u20$as$u20$elf_rs..elf_header..ElfHeaderRaw$GT$14header_version17h1f65ad1ee3ac474eE>:
  104a70:	0f b6 47 06          	movzbl 0x6(%rdi),%eax
  104a74:	c3                   	ret
  104a75:	66 2e 0f 1f 84 00 00 	cs nopw 0x0(%rax,%rax,1)
  104a7c:	00 00 00 
  104a7f:	90                   	nop

0000000000104a80 <_ZN106_$LT$elf_rs..elf_header..elf_header..ElfHeaderGen$LT$T$GT$$u20$as$u20$elf_rs..elf_header..ElfHeaderRaw$GT$5class17hd308b05669d820edE>:
  104a80:	0f b6 57 04          	movzbl 0x4(%rdi),%edx
  104a84:	80 fa 02             	cmp    $0x2,%dl
  104a87:	0f 94 c0             	sete   %al
  104a8a:	b1 02                	mov    $0x2,%cl
  104a8c:	28 c1                	sub    %al,%cl
  104a8e:	31 f6                	xor    %esi,%esi
  104a90:	80 fa 01             	cmp    $0x1,%dl
  104a93:	0f b6 c1             	movzbl %cl,%eax
  104a96:	0f 44 c6             	cmove  %esi,%eax
  104a99:	c3                   	ret
  104a9a:	66 0f 1f 44 00 00    	nopw   0x0(%rax,%rax,1)

0000000000104aa0 <_ZN106_$LT$elf_rs..elf_header..elf_header..ElfHeaderGen$LT$T$GT$$u20$as$u20$elf_rs..elf_header..ElfHeaderRaw$GT$5class17hf68ab6a7984a477bE>:
  104aa0:	0f b6 57 04          	movzbl 0x4(%rdi),%edx
  104aa4:	80 fa 02             	cmp    $0x2,%dl
  104aa7:	0f 94 c0             	sete   %al
  104aaa:	b1 02                	mov    $0x2,%cl
  104aac:	28 c1                	sub    %al,%cl
  104aae:	31 f6                	xor    %esi,%esi
  104ab0:	80 fa 01             	cmp    $0x1,%dl
  104ab3:	0f b6 c1             	movzbl %cl,%eax
  104ab6:	0f 44 c6             	cmove  %esi,%eax
  104ab9:	c3                   	ret
  104aba:	66 0f 1f 44 00 00    	nopw   0x0(%rax,%rax,1)

0000000000104ac0 <_ZN4core3ptr76drop_in_place$LT$elf_rs..elf_header..elf_header..ElfHeaderGen$LT$u32$GT$$GT$17hb01e9ed1c9fbcfd9E>:
  104ac0:	c3                   	ret
  104ac1:	66 2e 0f 1f 84 00 00 	cs nopw 0x0(%rax,%rax,1)
  104ac8:	00 00 00 
  104acb:	0f 1f 44 00 00       	nopl   0x0(%rax,%rax,1)

0000000000104ad0 <_ZN4core3ptr76drop_in_place$LT$elf_rs..elf_header..elf_header..ElfHeaderGen$LT$u64$GT$$GT$17hddef7c293d3f5421E>:
  104ad0:	c3                   	ret
  104ad1:	66 2e 0f 1f 84 00 00 	cs nopw 0x0(%rax,%rax,1)
  104ad8:	00 00 00 
  104adb:	0f 1f 44 00 00       	nopl   0x0(%rax,%rax,1)

0000000000104ae0 <_ZN6elf_rs3elf7ElfFile11entry_point17h062a143145cfe78cE>:
  104ae0:	48 8b 07             	mov    (%rdi),%rax
  104ae3:	8b 40 18             	mov    0x18(%rax),%eax
  104ae6:	c3                   	ret
  104ae7:	66 0f 1f 84 00 00 00 	nopw   0x0(%rax,%rax,1)
  104aee:	00 00 

0000000000104af0 <_ZN6elf_rs3elf7ElfFile11entry_point17hcfa469b153d715e3E>:
  104af0:	48 8b 07             	mov    (%rdi),%rax
  104af3:	48 8b 40 18          	mov    0x18(%rax),%rax
  104af7:	c3                   	ret
  104af8:	0f 1f 84 00 00 00 00 	nopl   0x0(%rax,%rax,1)
  104aff:	00 

0000000000104b00 <_ZN6elf_rs3elf7ElfFile13shstr_section17h72a4ed485d2062ebE>:
  104b00:	48 89 f8             	mov    %rdi,%rax
  104b03:	48 8b 0e             	mov    (%rsi),%rcx
  104b06:	0f b7 51 32          	movzwl 0x32(%rcx),%edx
  104b0a:	44 0f b7 49 30       	movzwl 0x30(%rcx),%r9d
  104b0f:	31 ff                	xor    %edi,%edi
  104b11:	66 41 39 d1          	cmp    %dx,%r9w
  104b15:	76 3a                	jbe    104b51 <_ZN6elf_rs3elf7ElfFile13shstr_section17h72a4ed485d2062ebE+0x51>
  104b17:	44 8b 41 20          	mov    0x20(%rcx),%r8d
  104b1b:	4f 8d 0c 89          	lea    (%r9,%r9,4),%r9
  104b1f:	4f 8d 0c c8          	lea    (%r8,%r9,8),%r9
  104b23:	4c 3b 4e 08          	cmp    0x8(%rsi),%r9
  104b27:	77 28                	ja     104b51 <_ZN6elf_rs3elf7ElfFile13shstr_section17h72a4ed485d2062ebE+0x51>
  104b29:	4c 01 c1             	add    %r8,%rcx
  104b2c:	48 8d 14 92          	lea    (%rdx,%rdx,4),%rdx
  104b30:	48 8d 0c d1          	lea    (%rcx,%rdx,8),%rcx
  104b34:	48 8d 15 85 36 01 00 	lea    0x13685(%rip),%rdx        # 1181c0 <enable_paging+0xf9f>
  104b3b:	48 89 50 08          	mov    %rdx,0x8(%rax)
  104b3f:	48 89 48 10          	mov    %rcx,0x10(%rax)
  104b43:	48 8d 0d 96 37 01 00 	lea    0x13796(%rip),%rcx        # 1182e0 <enable_paging+0x10bf>
  104b4a:	48 89 48 18          	mov    %rcx,0x18(%rax)
  104b4e:	48 89 f7             	mov    %rsi,%rdi
  104b51:	48 89 38             	mov    %rdi,(%rax)
  104b54:	c3                   	ret
  104b55:	66 2e 0f 1f 84 00 00 	cs nopw 0x0(%rax,%rax,1)
  104b5c:	00 00 00 
  104b5f:	90                   	nop

0000000000104b60 <_ZN6elf_rs3elf7ElfFile13shstr_section17hf5236370e63833ceE>:
  104b60:	48 89 f8             	mov    %rdi,%rax
  104b63:	48 8b 16             	mov    (%rsi),%rdx
  104b66:	0f b7 4a 3e          	movzwl 0x3e(%rdx),%ecx
  104b6a:	48 8b 7a 28          	mov    0x28(%rdx),%rdi
  104b6e:	44 0f b7 52 3c       	movzwl 0x3c(%rdx),%r10d
  104b73:	45 89 d0             	mov    %r10d,%r8d
  104b76:	41 c1 e0 06          	shl    $0x6,%r8d
  104b7a:	49 01 f8             	add    %rdi,%r8
  104b7d:	49 c7 c1 ff ff ff ff 	mov    $0xffffffffffffffff,%r9
  104b84:	4d 0f 43 c8          	cmovae %r8,%r9
  104b88:	45 31 c0             	xor    %r8d,%r8d
  104b8b:	66 41 39 ca          	cmp    %cx,%r10w
  104b8f:	76 2c                	jbe    104bbd <_ZN6elf_rs3elf7ElfFile13shstr_section17hf5236370e63833ceE+0x5d>
  104b91:	4c 3b 4e 08          	cmp    0x8(%rsi),%r9
  104b95:	77 26                	ja     104bbd <_ZN6elf_rs3elf7ElfFile13shstr_section17hf5236370e63833ceE+0x5d>
  104b97:	48 01 fa             	add    %rdi,%rdx
  104b9a:	c1 e1 06             	shl    $0x6,%ecx
  104b9d:	48 01 d1             	add    %rdx,%rcx
  104ba0:	48 8d 15 61 35 01 00 	lea    0x13561(%rip),%rdx        # 118108 <enable_paging+0xee7>
  104ba7:	48 89 50 08          	mov    %rdx,0x8(%rax)
  104bab:	48 89 48 10          	mov    %rcx,0x10(%rax)
  104baf:	48 8d 0d c2 36 01 00 	lea    0x136c2(%rip),%rcx        # 118278 <enable_paging+0x1057>
  104bb6:	48 89 48 18          	mov    %rcx,0x18(%rax)
  104bba:	49 89 f0             	mov    %rsi,%r8
  104bbd:	4c 89 00             	mov    %r8,(%rax)
  104bc0:	c3                   	ret
  104bc1:	66 2e 0f 1f 84 00 00 	cs nopw 0x0(%rax,%rax,1)
  104bc8:	00 00 00 
  104bcb:	0f 1f 44 00 00       	nopl   0x0(%rax,%rax,1)

0000000000104bd0 <_ZN6elf_rs3elf7ElfFile14lookup_section17h231cb41a40facc72E>:
  104bd0:	55                   	push   %rbp
  104bd1:	41 57                	push   %r15
  104bd3:	41 56                	push   %r14
  104bd5:	41 55                	push   %r13
  104bd7:	41 54                	push   %r12
  104bd9:	53                   	push   %rbx
  104bda:	48 83 ec 78          	sub    $0x78,%rsp
  104bde:	49 89 ce             	mov    %rcx,%r14
  104be1:	49 89 d7             	mov    %rdx,%r15
  104be4:	48 89 7c 24 20       	mov    %rdi,0x20(%rsp)
  104be9:	48 89 74 24 60       	mov    %rsi,0x60(%rsp)
  104bee:	48 8d 05 cb 35 01 00 	lea    0x135cb(%rip),%rax        # 1181c0 <enable_paging+0xf9f>
  104bf5:	48 89 44 24 68       	mov    %rax,0x68(%rsp)
  104bfa:	48 c7 44 24 70 00 00 	movq   $0x0,0x70(%rsp)
  104c01:	00 00 
  104c03:	48 8d 7c 24 28       	lea    0x28(%rsp),%rdi
  104c08:	48 8d 74 24 60       	lea    0x60(%rsp),%rsi
  104c0d:	e8 4e c1 00 00       	call   110d60 <_ZN105_$LT$elf_rs..elf..section_header..SectionHeaderIter$u20$as$u20$core..iter..traits..iterator..Iterator$GT$4next17h3390bb8f0cc63711E>
  104c12:	48 83 7c 24 28 00    	cmpq   $0x0,0x28(%rsp)
  104c18:	0f 84 ec 00 00 00    	je     104d0a <_ZN6elf_rs3elf7ElfFile14lookup_section17h231cb41a40facc72E+0x13a>
  104c1e:	48 8d 5c 24 08       	lea    0x8(%rsp),%rbx
  104c23:	49 89 e4             	mov    %rsp,%r12
  104c26:	4c 8d 6c 24 28       	lea    0x28(%rsp),%r13
  104c2b:	48 8d 6c 24 60       	lea    0x60(%rsp),%rbp
  104c30:	eb 25                	jmp    104c57 <_ZN6elf_rs3elf7ElfFile14lookup_section17h231cb41a40facc72E+0x87>
  104c32:	66 66 66 66 66 2e 0f 	data16 data16 data16 data16 cs nopw 0x0(%rax,%rax,1)
  104c39:	1f 84 00 00 00 00 00 
  104c40:	4c 89 ef             	mov    %r13,%rdi
  104c43:	48 89 ee             	mov    %rbp,%rsi
  104c46:	e8 15 c1 00 00       	call   110d60 <_ZN105_$LT$elf_rs..elf..section_header..SectionHeaderIter$u20$as$u20$core..iter..traits..iterator..Iterator$GT$4next17h3390bb8f0cc63711E>
  104c4b:	48 83 7c 24 28 00    	cmpq   $0x0,0x28(%rsp)
  104c51:	0f 84 b3 00 00 00    	je     104d0a <_ZN6elf_rs3elf7ElfFile14lookup_section17h231cb41a40facc72E+0x13a>
  104c57:	48 8b 44 24 40       	mov    0x40(%rsp),%rax
  104c5c:	48 89 44 24 18       	mov    %rax,0x18(%rsp)
  104c61:	48 8b 44 24 38       	mov    0x38(%rsp),%rax
  104c66:	48 89 44 24 10       	mov    %rax,0x10(%rsp)
  104c6b:	48 8b 44 24 28       	mov    0x28(%rsp),%rax
  104c70:	48 8b 4c 24 30       	mov    0x30(%rsp),%rcx
  104c75:	48 89 4c 24 08       	mov    %rcx,0x8(%rsp)
  104c7a:	48 89 04 24          	mov    %rax,(%rsp)
  104c7e:	4c 89 e7             	mov    %r12,%rdi
  104c81:	e8 ea bf 00 00       	call   110c70 <_ZN6elf_rs3elf14section_header18SectionHeaderEntry12section_name17h2071d86f9de218faE>
  104c86:	48 85 c0             	test   %rax,%rax
  104c89:	74 b5                	je     104c40 <_ZN6elf_rs3elf7ElfFile14lookup_section17h231cb41a40facc72E+0x70>
  104c8b:	4c 39 f2             	cmp    %r14,%rdx
  104c8e:	75 b0                	jne    104c40 <_ZN6elf_rs3elf7ElfFile14lookup_section17h231cb41a40facc72E+0x70>
  104c90:	48 89 c7             	mov    %rax,%rdi
  104c93:	4c 89 fe             	mov    %r15,%rsi
  104c96:	4c 89 f2             	mov    %r14,%rdx
  104c99:	e8 72 21 01 00       	call   116e10 <memcmp>
  104c9e:	85 c0                	test   %eax,%eax
  104ca0:	75 9e                	jne    104c40 <_ZN6elf_rs3elf7ElfFile14lookup_section17h231cb41a40facc72E+0x70>
  104ca2:	48 8b 34 24          	mov    (%rsp),%rsi
  104ca6:	48 8b 0b             	mov    (%rbx),%rcx
  104ca9:	48 8b 53 08          	mov    0x8(%rbx),%rdx
  104cad:	48 89 4c 24 48       	mov    %rcx,0x48(%rsp)
  104cb2:	48 89 54 24 50       	mov    %rdx,0x50(%rsp)
  104cb7:	48 8b 4b 10          	mov    0x10(%rbx),%rcx
  104cbb:	48 89 4c 24 58       	mov    %rcx,0x58(%rsp)
  104cc0:	48 85 f6             	test   %rsi,%rsi
  104cc3:	0f 84 77 ff ff ff    	je     104c40 <_ZN6elf_rs3elf7ElfFile14lookup_section17h231cb41a40facc72E+0x70>
  104cc9:	48 8b 4c 24 58       	mov    0x58(%rsp),%rcx
  104cce:	48 89 4c 24 10       	mov    %rcx,0x10(%rsp)
  104cd3:	48 8b 4c 24 48       	mov    0x48(%rsp),%rcx
  104cd8:	48 8b 54 24 50       	mov    0x50(%rsp),%rdx
  104cdd:	48 89 54 24 08       	mov    %rdx,0x8(%rsp)
  104ce2:	48 89 0c 24          	mov    %rcx,(%rsp)
  104ce6:	48 8b 44 24 20       	mov    0x20(%rsp),%rax
  104ceb:	48 89 30             	mov    %rsi,(%rax)
  104cee:	48 8b 14 24          	mov    (%rsp),%rdx
  104cf2:	48 8b 4c 24 08       	mov    0x8(%rsp),%rcx
  104cf7:	48 89 50 08          	mov    %rdx,0x8(%rax)
  104cfb:	48 89 48 10          	mov    %rcx,0x10(%rax)
  104cff:	48 8b 4c 24 10       	mov    0x10(%rsp),%rcx
  104d04:	48 89 48 18          	mov    %rcx,0x18(%rax)
  104d08:	eb 0c                	jmp    104d16 <_ZN6elf_rs3elf7ElfFile14lookup_section17h231cb41a40facc72E+0x146>
  104d0a:	48 8b 44 24 20       	mov    0x20(%rsp),%rax
  104d0f:	48 c7 00 00 00 00 00 	movq   $0x0,(%rax)
  104d16:	48 83 c4 78          	add    $0x78,%rsp
  104d1a:	5b                   	pop    %rbx
  104d1b:	41 5c                	pop    %r12
  104d1d:	41 5d                	pop    %r13
  104d1f:	41 5e                	pop    %r14
  104d21:	41 5f                	pop    %r15
  104d23:	5d                   	pop    %rbp
  104d24:	c3                   	ret
  104d25:	66 2e 0f 1f 84 00 00 	cs nopw 0x0(%rax,%rax,1)
  104d2c:	00 00 00 
  104d2f:	90                   	nop

0000000000104d30 <_ZN6elf_rs3elf7ElfFile14lookup_section17hbeef9231018b7f40E>:
  104d30:	55                   	push   %rbp
  104d31:	41 57                	push   %r15
  104d33:	41 56                	push   %r14
  104d35:	41 55                	push   %r13
  104d37:	41 54                	push   %r12
  104d39:	53                   	push   %rbx
  104d3a:	48 83 ec 78          	sub    $0x78,%rsp
  104d3e:	49 89 ce             	mov    %rcx,%r14
  104d41:	49 89 d7             	mov    %rdx,%r15
  104d44:	48 89 7c 24 20       	mov    %rdi,0x20(%rsp)
  104d49:	48 89 74 24 60       	mov    %rsi,0x60(%rsp)
  104d4e:	48 8d 05 b3 33 01 00 	lea    0x133b3(%rip),%rax        # 118108 <enable_paging+0xee7>
  104d55:	48 89 44 24 68       	mov    %rax,0x68(%rsp)
  104d5a:	48 c7 44 24 70 00 00 	movq   $0x0,0x70(%rsp)
  104d61:	00 00 
  104d63:	48 8d 7c 24 28       	lea    0x28(%rsp),%rdi
  104d68:	48 8d 74 24 60       	lea    0x60(%rsp),%rsi
  104d6d:	e8 ee bf 00 00       	call   110d60 <_ZN105_$LT$elf_rs..elf..section_header..SectionHeaderIter$u20$as$u20$core..iter..traits..iterator..Iterator$GT$4next17h3390bb8f0cc63711E>
  104d72:	48 83 7c 24 28 00    	cmpq   $0x0,0x28(%rsp)
  104d78:	0f 84 ec 00 00 00    	je     104e6a <_ZN6elf_rs3elf7ElfFile14lookup_section17hbeef9231018b7f40E+0x13a>
  104d7e:	48 8d 5c 24 08       	lea    0x8(%rsp),%rbx
  104d83:	49 89 e4             	mov    %rsp,%r12
  104d86:	4c 8d 6c 24 28       	lea    0x28(%rsp),%r13
  104d8b:	48 8d 6c 24 60       	lea    0x60(%rsp),%rbp
  104d90:	eb 25                	jmp    104db7 <_ZN6elf_rs3elf7ElfFile14lookup_section17hbeef9231018b7f40E+0x87>
  104d92:	66 66 66 66 66 2e 0f 	data16 data16 data16 data16 cs nopw 0x0(%rax,%rax,1)
  104d99:	1f 84 00 00 00 00 00 
  104da0:	4c 89 ef             	mov    %r13,%rdi
  104da3:	48 89 ee             	mov    %rbp,%rsi
  104da6:	e8 b5 bf 00 00       	call   110d60 <_ZN105_$LT$elf_rs..elf..section_header..SectionHeaderIter$u20$as$u20$core..iter..traits..iterator..Iterator$GT$4next17h3390bb8f0cc63711E>
  104dab:	48 83 7c 24 28 00    	cmpq   $0x0,0x28(%rsp)
  104db1:	0f 84 b3 00 00 00    	je     104e6a <_ZN6elf_rs3elf7ElfFile14lookup_section17hbeef9231018b7f40E+0x13a>
  104db7:	48 8b 44 24 40       	mov    0x40(%rsp),%rax
  104dbc:	48 89 44 24 18       	mov    %rax,0x18(%rsp)
  104dc1:	48 8b 44 24 38       	mov    0x38(%rsp),%rax
  104dc6:	48 89 44 24 10       	mov    %rax,0x10(%rsp)
  104dcb:	48 8b 44 24 28       	mov    0x28(%rsp),%rax
  104dd0:	48 8b 4c 24 30       	mov    0x30(%rsp),%rcx
  104dd5:	48 89 4c 24 08       	mov    %rcx,0x8(%rsp)
  104dda:	48 89 04 24          	mov    %rax,(%rsp)
  104dde:	4c 89 e7             	mov    %r12,%rdi
  104de1:	e8 8a be 00 00       	call   110c70 <_ZN6elf_rs3elf14section_header18SectionHeaderEntry12section_name17h2071d86f9de218faE>
  104de6:	48 85 c0             	test   %rax,%rax
  104de9:	74 b5                	je     104da0 <_ZN6elf_rs3elf7ElfFile14lookup_section17hbeef9231018b7f40E+0x70>
  104deb:	4c 39 f2             	cmp    %r14,%rdx
  104dee:	75 b0                	jne    104da0 <_ZN6elf_rs3elf7ElfFile14lookup_section17hbeef9231018b7f40E+0x70>
  104df0:	48 89 c7             	mov    %rax,%rdi
  104df3:	4c 89 fe             	mov    %r15,%rsi
  104df6:	4c 89 f2             	mov    %r14,%rdx
  104df9:	e8 12 20 01 00       	call   116e10 <memcmp>
  104dfe:	85 c0                	test   %eax,%eax
  104e00:	75 9e                	jne    104da0 <_ZN6elf_rs3elf7ElfFile14lookup_section17hbeef9231018b7f40E+0x70>
  104e02:	48 8b 34 24          	mov    (%rsp),%rsi
  104e06:	48 8b 0b             	mov    (%rbx),%rcx
  104e09:	48 8b 53 08          	mov    0x8(%rbx),%rdx
  104e0d:	48 89 4c 24 48       	mov    %rcx,0x48(%rsp)
  104e12:	48 89 54 24 50       	mov    %rdx,0x50(%rsp)
  104e17:	48 8b 4b 10          	mov    0x10(%rbx),%rcx
  104e1b:	48 89 4c 24 58       	mov    %rcx,0x58(%rsp)
  104e20:	48 85 f6             	test   %rsi,%rsi
  104e23:	0f 84 77 ff ff ff    	je     104da0 <_ZN6elf_rs3elf7ElfFile14lookup_section17hbeef9231018b7f40E+0x70>
  104e29:	48 8b 4c 24 58       	mov    0x58(%rsp),%rcx
  104e2e:	48 89 4c 24 10       	mov    %rcx,0x10(%rsp)
  104e33:	48 8b 4c 24 48       	mov    0x48(%rsp),%rcx
  104e38:	48 8b 54 24 50       	mov    0x50(%rsp),%rdx
  104e3d:	48 89 54 24 08       	mov    %rdx,0x8(%rsp)
  104e42:	48 89 0c 24          	mov    %rcx,(%rsp)
  104e46:	48 8b 44 24 20       	mov    0x20(%rsp),%rax
  104e4b:	48 89 30             	mov    %rsi,(%rax)
  104e4e:	48 8b 14 24          	mov    (%rsp),%rdx
  104e52:	48 8b 4c 24 08       	mov    0x8(%rsp),%rcx
  104e57:	48 89 50 08          	mov    %rdx,0x8(%rax)
  104e5b:	48 89 48 10          	mov    %rcx,0x10(%rax)
  104e5f:	48 8b 4c 24 10       	mov    0x10(%rsp),%rcx
  104e64:	48 89 48 18          	mov    %rcx,0x18(%rax)
  104e68:	eb 0c                	jmp    104e76 <_ZN6elf_rs3elf7ElfFile14lookup_section17hbeef9231018b7f40E+0x146>
  104e6a:	48 8b 44 24 20       	mov    0x20(%rsp),%rax
  104e6f:	48 c7 00 00 00 00 00 	movq   $0x0,(%rax)
  104e76:	48 83 c4 78          	add    $0x78,%rsp
  104e7a:	5b                   	pop    %rbx
  104e7b:	41 5c                	pop    %r12
  104e7d:	41 5d                	pop    %r13
  104e7f:	41 5e                	pop    %r14
  104e81:	41 5f                	pop    %r15
  104e83:	5d                   	pop    %rbp
  104e84:	c3                   	ret
  104e85:	66 2e 0f 1f 84 00 00 	cs nopw 0x0(%rax,%rax,1)
  104e8c:	00 00 00 
  104e8f:	90                   	nop

0000000000104e90 <_ZN72_$LT$elf_rs..elf..elf..Elf$LT$ET$GT$$u20$as$u20$elf_rs..elf..ElfFile$GT$10elf_header17h431aeed0633ed61aE>:
  104e90:	48 89 f8             	mov    %rdi,%rax
  104e93:	48 8b 0e             	mov    (%rsi),%rcx
  104e96:	48 89 37             	mov    %rsi,(%rdi)
  104e99:	48 8d 15 20 33 01 00 	lea    0x13320(%rip),%rdx        # 1181c0 <enable_paging+0xf9f>
  104ea0:	48 89 57 08          	mov    %rdx,0x8(%rdi)
  104ea4:	48 89 4f 10          	mov    %rcx,0x10(%rdi)
  104ea8:	48 8d 0d 41 35 01 00 	lea    0x13541(%rip),%rcx        # 1183f0 <enable_paging+0x11cf>
  104eaf:	48 89 4f 18          	mov    %rcx,0x18(%rdi)
  104eb3:	c3                   	ret
  104eb4:	66 2e 0f 1f 84 00 00 	cs nopw 0x0(%rax,%rax,1)
  104ebb:	00 00 00 
  104ebe:	66 90                	xchg   %ax,%ax

0000000000104ec0 <_ZN72_$LT$elf_rs..elf..elf..Elf$LT$ET$GT$$u20$as$u20$elf_rs..elf..ElfFile$GT$10elf_header17hca0d0dd0978bc908E>:
  104ec0:	48 89 f8             	mov    %rdi,%rax
  104ec3:	48 8b 0e             	mov    (%rsi),%rcx
  104ec6:	48 89 37             	mov    %rsi,(%rdi)
  104ec9:	48 8d 15 38 32 01 00 	lea    0x13238(%rip),%rdx        # 118108 <enable_paging+0xee7>
  104ed0:	48 89 57 08          	mov    %rdx,0x8(%rdi)
  104ed4:	48 89 4f 10          	mov    %rcx,0x10(%rdi)
  104ed8:	48 8d 0d 69 34 01 00 	lea    0x13469(%rip),%rcx        # 118348 <enable_paging+0x1127>
  104edf:	48 89 4f 18          	mov    %rcx,0x18(%rdi)
  104ee3:	c3                   	ret
  104ee4:	66 2e 0f 1f 84 00 00 	cs nopw 0x0(%rax,%rax,1)
  104eeb:	00 00 00 
  104eee:	66 90                	xchg   %ax,%ax

0000000000104ef0 <_ZN72_$LT$elf_rs..elf..elf..Elf$LT$ET$GT$$u20$as$u20$elf_rs..elf..ElfFile$GT$18program_header_nth17h15506d7f96e51145E>:
  104ef0:	48 89 f8             	mov    %rdi,%rax
  104ef3:	48 8b 0e             	mov    (%rsi),%rcx
  104ef6:	44 0f b7 41 2c       	movzwl 0x2c(%rcx),%r8d
  104efb:	31 ff                	xor    %edi,%edi
  104efd:	49 39 d0             	cmp    %rdx,%r8
  104f00:	76 38                	jbe    104f3a <_ZN72_$LT$elf_rs..elf..elf..Elf$LT$ET$GT$$u20$as$u20$elf_rs..elf..ElfFile$GT$18program_header_nth17h15506d7f96e51145E+0x4a>
  104f02:	44 8b 49 1c          	mov    0x1c(%rcx),%r9d
  104f06:	41 c1 e0 05          	shl    $0x5,%r8d
  104f0a:	4d 01 c8             	add    %r9,%r8
  104f0d:	4c 3b 46 08          	cmp    0x8(%rsi),%r8
  104f11:	77 27                	ja     104f3a <_ZN72_$LT$elf_rs..elf..elf..Elf$LT$ET$GT$$u20$as$u20$elf_rs..elf..ElfFile$GT$18program_header_nth17h15506d7f96e51145E+0x4a>
  104f13:	4c 01 c9             	add    %r9,%rcx
  104f16:	48 c1 e2 05          	shl    $0x5,%rdx
  104f1a:	48 01 ca             	add    %rcx,%rdx
  104f1d:	48 8d 0d 9c 32 01 00 	lea    0x1329c(%rip),%rcx        # 1181c0 <enable_paging+0xf9f>
  104f24:	48 89 48 08          	mov    %rcx,0x8(%rax)
  104f28:	48 89 50 10          	mov    %rdx,0x10(%rax)
  104f2c:	48 8d 0d ed 32 01 00 	lea    0x132ed(%rip),%rcx        # 118220 <enable_paging+0xfff>
  104f33:	48 89 48 18          	mov    %rcx,0x18(%rax)
  104f37:	48 89 f7             	mov    %rsi,%rdi
  104f3a:	48 89 38             	mov    %rdi,(%rax)
  104f3d:	c3                   	ret
  104f3e:	66 90                	xchg   %ax,%ax

0000000000104f40 <_ZN72_$LT$elf_rs..elf..elf..Elf$LT$ET$GT$$u20$as$u20$elf_rs..elf..ElfFile$GT$18program_header_nth17hd7b8576719a70fa1E>:
  104f40:	48 89 f8             	mov    %rdi,%rax
  104f43:	48 8b 0e             	mov    (%rsi),%rcx
  104f46:	48 8b 79 20          	mov    0x20(%rcx),%rdi
  104f4a:	44 0f b7 51 38       	movzwl 0x38(%rcx),%r10d
  104f4f:	4d 6b c2 38          	imul   $0x38,%r10,%r8
  104f53:	49 01 f8             	add    %rdi,%r8
  104f56:	49 c7 c1 ff ff ff ff 	mov    $0xffffffffffffffff,%r9
  104f5d:	4d 0f 43 c8          	cmovae %r8,%r9
  104f61:	45 31 c0             	xor    %r8d,%r8d
  104f64:	49 39 d2             	cmp    %rdx,%r10
  104f67:	76 2d                	jbe    104f96 <_ZN72_$LT$elf_rs..elf..elf..Elf$LT$ET$GT$$u20$as$u20$elf_rs..elf..ElfFile$GT$18program_header_nth17hd7b8576719a70fa1E+0x56>
  104f69:	4c 3b 4e 08          	cmp    0x8(%rsi),%r9
  104f6d:	77 27                	ja     104f96 <_ZN72_$LT$elf_rs..elf..elf..Elf$LT$ET$GT$$u20$as$u20$elf_rs..elf..ElfFile$GT$18program_header_nth17hd7b8576719a70fa1E+0x56>
  104f6f:	48 01 f9             	add    %rdi,%rcx
  104f72:	48 6b d2 38          	imul   $0x38,%rdx,%rdx
  104f76:	48 01 ca             	add    %rcx,%rdx
  104f79:	48 8d 0d 88 31 01 00 	lea    0x13188(%rip),%rcx        # 118108 <enable_paging+0xee7>
  104f80:	48 89 48 08          	mov    %rcx,0x8(%rax)
  104f84:	48 89 50 10          	mov    %rdx,0x10(%rax)
  104f88:	48 8d 0d d9 31 01 00 	lea    0x131d9(%rip),%rcx        # 118168 <enable_paging+0xf47>
  104f8f:	48 89 48 18          	mov    %rcx,0x18(%rax)
  104f93:	49 89 f0             	mov    %rsi,%r8
  104f96:	4c 89 00             	mov    %r8,(%rax)
  104f99:	c3                   	ret
  104f9a:	66 0f 1f 44 00 00    	nopw   0x0(%rax,%rax,1)

0000000000104fa0 <_ZN72_$LT$elf_rs..elf..elf..Elf$LT$ET$GT$$u20$as$u20$elf_rs..elf..ElfFile$GT$18section_header_nth17h67174320f16ca605E>:
  104fa0:	48 89 f8             	mov    %rdi,%rax
  104fa3:	48 8b 0e             	mov    (%rsi),%rcx
  104fa6:	44 0f b7 49 30       	movzwl 0x30(%rcx),%r9d
  104fab:	31 ff                	xor    %edi,%edi
  104fad:	49 39 d1             	cmp    %rdx,%r9
  104fb0:	76 3a                	jbe    104fec <_ZN72_$LT$elf_rs..elf..elf..Elf$LT$ET$GT$$u20$as$u20$elf_rs..elf..ElfFile$GT$18section_header_nth17h67174320f16ca605E+0x4c>
  104fb2:	44 8b 41 20          	mov    0x20(%rcx),%r8d
  104fb6:	4f 8d 0c 89          	lea    (%r9,%r9,4),%r9
  104fba:	4f 8d 0c c8          	lea    (%r8,%r9,8),%r9
  104fbe:	4c 3b 4e 08          	cmp    0x8(%rsi),%r9
  104fc2:	77 28                	ja     104fec <_ZN72_$LT$elf_rs..elf..elf..Elf$LT$ET$GT$$u20$as$u20$elf_rs..elf..ElfFile$GT$18section_header_nth17h67174320f16ca605E+0x4c>
  104fc4:	4c 01 c1             	add    %r8,%rcx
  104fc7:	48 8d 14 92          	lea    (%rdx,%rdx,4),%rdx
  104fcb:	48 8d 0c d1          	lea    (%rcx,%rdx,8),%rcx
  104fcf:	48 8d 15 ea 31 01 00 	lea    0x131ea(%rip),%rdx        # 1181c0 <enable_paging+0xf9f>
  104fd6:	48 89 50 08          	mov    %rdx,0x8(%rax)
  104fda:	48 89 48 10          	mov    %rcx,0x10(%rax)
  104fde:	48 8d 0d fb 32 01 00 	lea    0x132fb(%rip),%rcx        # 1182e0 <enable_paging+0x10bf>
  104fe5:	48 89 48 18          	mov    %rcx,0x18(%rax)
  104fe9:	48 89 f7             	mov    %rsi,%rdi
  104fec:	48 89 38             	mov    %rdi,(%rax)
  104fef:	c3                   	ret

0000000000104ff0 <_ZN72_$LT$elf_rs..elf..elf..Elf$LT$ET$GT$$u20$as$u20$elf_rs..elf..ElfFile$GT$18section_header_nth17h7130dd0d52cbb2c4E>:
  104ff0:	48 89 f8             	mov    %rdi,%rax
  104ff3:	48 8b 0e             	mov    (%rsi),%rcx
  104ff6:	48 8b 79 28          	mov    0x28(%rcx),%rdi
  104ffa:	44 0f b7 51 3c       	movzwl 0x3c(%rcx),%r10d
  104fff:	45 89 d0             	mov    %r10d,%r8d
  105002:	41 c1 e0 06          	shl    $0x6,%r8d
  105006:	49 01 f8             	add    %rdi,%r8
  105009:	49 c7 c1 ff ff ff ff 	mov    $0xffffffffffffffff,%r9
  105010:	4d 0f 43 c8          	cmovae %r8,%r9
  105014:	45 31 c0             	xor    %r8d,%r8d
  105017:	49 39 d2             	cmp    %rdx,%r10
  10501a:	76 2d                	jbe    105049 <_ZN72_$LT$elf_rs..elf..elf..Elf$LT$ET$GT$$u20$as$u20$elf_rs..elf..ElfFile$GT$18section_header_nth17h7130dd0d52cbb2c4E+0x59>
  10501c:	4c 3b 4e 08          	cmp    0x8(%rsi),%r9
  105020:	77 27                	ja     105049 <_ZN72_$LT$elf_rs..elf..elf..Elf$LT$ET$GT$$u20$as$u20$elf_rs..elf..ElfFile$GT$18section_header_nth17h7130dd0d52cbb2c4E+0x59>
  105022:	48 01 f9             	add    %rdi,%rcx
  105025:	48 c1 e2 06          	shl    $0x6,%rdx
  105029:	48 01 ca             	add    %rcx,%rdx
  10502c:	48 8d 0d d5 30 01 00 	lea    0x130d5(%rip),%rcx        # 118108 <enable_paging+0xee7>
  105033:	48 89 48 08          	mov    %rcx,0x8(%rax)
  105037:	48 89 50 10          	mov    %rdx,0x10(%rax)
  10503b:	48 8d 0d 36 32 01 00 	lea    0x13236(%rip),%rcx        # 118278 <enable_paging+0x1057>
  105042:	48 89 48 18          	mov    %rcx,0x18(%rax)
  105046:	49 89 f0             	mov    %rsi,%r8
  105049:	4c 89 00             	mov    %r8,(%rax)
  10504c:	c3                   	ret
  10504d:	0f 1f 00             	nopl   (%rax)

0000000000105050 <_ZN72_$LT$elf_rs..elf..elf..Elf$LT$ET$GT$$u20$as$u20$elf_rs..elf..ElfFile$GT$19program_header_iter17h6d34653d53a40176E>:
  105050:	48 89 f8             	mov    %rdi,%rax
  105053:	48 89 37             	mov    %rsi,(%rdi)
  105056:	48 8d 0d 63 31 01 00 	lea    0x13163(%rip),%rcx        # 1181c0 <enable_paging+0xf9f>
  10505d:	48 89 4f 08          	mov    %rcx,0x8(%rdi)
  105061:	48 c7 47 10 00 00 00 	movq   $0x0,0x10(%rdi)
  105068:	00 
  105069:	c3                   	ret
  10506a:	66 0f 1f 44 00 00    	nopw   0x0(%rax,%rax,1)

0000000000105070 <_ZN72_$LT$elf_rs..elf..elf..Elf$LT$ET$GT$$u20$as$u20$elf_rs..elf..ElfFile$GT$19program_header_iter17hb013062f1dbcbdaaE>:
  105070:	48 89 f8             	mov    %rdi,%rax
  105073:	48 89 37             	mov    %rsi,(%rdi)
  105076:	48 8d 0d 8b 30 01 00 	lea    0x1308b(%rip),%rcx        # 118108 <enable_paging+0xee7>
  10507d:	48 89 4f 08          	mov    %rcx,0x8(%rdi)
  105081:	48 c7 47 10 00 00 00 	movq   $0x0,0x10(%rdi)
  105088:	00 
  105089:	c3                   	ret
  10508a:	66 0f 1f 44 00 00    	nopw   0x0(%rax,%rax,1)

0000000000105090 <_ZN72_$LT$elf_rs..elf..elf..Elf$LT$ET$GT$$u20$as$u20$elf_rs..elf..ElfFile$GT$7content17h417beb3f72cdbe22E>:
  105090:	48 8b 07             	mov    (%rdi),%rax
  105093:	48 8b 57 08          	mov    0x8(%rdi),%rdx
  105097:	c3                   	ret
  105098:	0f 1f 84 00 00 00 00 	nopl   0x0(%rax,%rax,1)
  10509f:	00 

00000000001050a0 <_ZN143_$LT$nothingos..allocator..Locked$LT$nothingos..allocator..linked_list..LinkedListAllocator$GT$$u20$as$u20$core..alloc..global..GlobalAlloc$GT$5alloc17h66850a7ae96c4e58E>:
  1050a0:	48 83 ec 48          	sub    $0x48,%rsp
  1050a4:	48 83 fe 09          	cmp    $0x9,%rsi
  1050a8:	b9 08 00 00 00       	mov    $0x8,%ecx
  1050ad:	48 0f 43 ce          	cmovae %rsi,%rcx
  1050b1:	48 8d 71 ff          	lea    -0x1(%rcx),%rsi
  1050b5:	48 85 f1             	test   %rsi,%rcx
  1050b8:	0f 85 0d 01 00 00    	jne    1051cb <_ZN143_$LT$nothingos..allocator..Locked$LT$nothingos..allocator..linked_list..LinkedListAllocator$GT$$u20$as$u20$core..alloc..global..GlobalAlloc$GT$5alloc17h66850a7ae96c4e58E+0x12b>
  1050be:	48 b8 00 00 00 00 00 	movabs $0x8000000000000000,%rax
  1050c5:	00 00 80 
  1050c8:	48 29 c8             	sub    %rcx,%rax
  1050cb:	48 39 d0             	cmp    %rdx,%rax
  1050ce:	0f 82 f7 00 00 00    	jb     1051cb <_ZN143_$LT$nothingos..allocator..Locked$LT$nothingos..allocator..linked_list..LinkedListAllocator$GT$$u20$as$u20$core..alloc..global..GlobalAlloc$GT$5alloc17h66850a7ae96c4e58E+0x12b>
  1050d4:	48 8d 04 11          	lea    (%rcx,%rdx,1),%rax
  1050d8:	48 ff c8             	dec    %rax
  1050db:	48 f7 d9             	neg    %rcx
  1050de:	48 21 c8             	and    %rcx,%rax
  1050e1:	48 83 f8 11          	cmp    $0x11,%rax
  1050e5:	ba 10 00 00 00       	mov    $0x10,%edx
  1050ea:	48 0f 43 d0          	cmovae %rax,%rdx
  1050ee:	41 b0 01             	mov    $0x1,%r8b
  1050f1:	66 66 66 66 66 66 2e 	data16 data16 data16 data16 data16 cs nopw 0x0(%rax,%rax,1)
  1050f8:	0f 1f 84 00 00 00 00 
  1050ff:	00 
  105100:	31 c0                	xor    %eax,%eax
  105102:	f0 44 0f b0 07       	lock cmpxchg %r8b,(%rdi)
  105107:	75 09                	jne    105112 <_ZN143_$LT$nothingos..allocator..Locked$LT$nothingos..allocator..linked_list..LinkedListAllocator$GT$$u20$as$u20$core..alloc..global..GlobalAlloc$GT$5alloc17h66850a7ae96c4e58E+0x72>
  105109:	eb 10                	jmp    10511b <_ZN143_$LT$nothingos..allocator..Locked$LT$nothingos..allocator..linked_list..LinkedListAllocator$GT$$u20$as$u20$core..alloc..global..GlobalAlloc$GT$5alloc17h66850a7ae96c4e58E+0x7b>
  10510b:	0f 1f 44 00 00       	nopl   0x0(%rax,%rax,1)
  105110:	f3 90                	pause
  105112:	0f b6 07             	movzbl (%rdi),%eax
  105115:	84 c0                	test   %al,%al
  105117:	75 f7                	jne    105110 <_ZN143_$LT$nothingos..allocator..Locked$LT$nothingos..allocator..linked_list..LinkedListAllocator$GT$$u20$as$u20$core..alloc..global..GlobalAlloc$GT$5alloc17h66850a7ae96c4e58E+0x70>
  105119:	eb e5                	jmp    105100 <_ZN143_$LT$nothingos..allocator..Locked$LT$nothingos..allocator..linked_list..LinkedListAllocator$GT$$u20$as$u20$core..alloc..global..GlobalAlloc$GT$5alloc17h66850a7ae96c4e58E+0x60>
  10511b:	48 8b 47 10          	mov    0x10(%rdi),%rax
  10511f:	48 85 c0             	test   %rax,%rax
  105122:	0f 84 99 00 00 00    	je     1051c1 <_ZN143_$LT$nothingos..allocator..Locked$LT$nothingos..allocator..linked_list..LinkedListAllocator$GT$$u20$as$u20$core..alloc..global..GlobalAlloc$GT$5alloc17h66850a7ae96c4e58E+0x121>
  105128:	4c 8d 4f 08          	lea    0x8(%rdi),%r9
  10512c:	eb 0f                	jmp    10513d <_ZN143_$LT$nothingos..allocator..Locked$LT$nothingos..allocator..linked_list..LinkedListAllocator$GT$$u20$as$u20$core..alloc..global..GlobalAlloc$GT$5alloc17h66850a7ae96c4e58E+0x9d>
  10512e:	66 90                	xchg   %ax,%ax
  105130:	49 8b 41 08          	mov    0x8(%r9),%rax
  105134:	48 85 c0             	test   %rax,%rax
  105137:	0f 84 84 00 00 00    	je     1051c1 <_ZN143_$LT$nothingos..allocator..Locked$LT$nothingos..allocator..linked_list..LinkedListAllocator$GT$$u20$as$u20$core..alloc..global..GlobalAlloc$GT$5alloc17h66850a7ae96c4e58E+0x121>
  10513d:	4d 89 ca             	mov    %r9,%r10
  105140:	49 89 c1             	mov    %rax,%r9
  105143:	48 01 f0             	add    %rsi,%rax
  105146:	48 21 c8             	and    %rcx,%rax
  105149:	49 89 c0             	mov    %rax,%r8
  10514c:	49 01 d0             	add    %rdx,%r8
  10514f:	72 df                	jb     105130 <_ZN143_$LT$nothingos..allocator..Locked$LT$nothingos..allocator..linked_list..LinkedListAllocator$GT$$u20$as$u20$core..alloc..global..GlobalAlloc$GT$5alloc17h66850a7ae96c4e58E+0x90>
  105151:	4d 8b 19             	mov    (%r9),%r11
  105154:	4d 01 cb             	add    %r9,%r11
  105157:	4d 29 c3             	sub    %r8,%r11
  10515a:	72 d4                	jb     105130 <_ZN143_$LT$nothingos..allocator..Locked$LT$nothingos..allocator..linked_list..LinkedListAllocator$GT$$u20$as$u20$core..alloc..global..GlobalAlloc$GT$5alloc17h66850a7ae96c4e58E+0x90>
  10515c:	74 06                	je     105164 <_ZN143_$LT$nothingos..allocator..Locked$LT$nothingos..allocator..linked_list..LinkedListAllocator$GT$$u20$as$u20$core..alloc..global..GlobalAlloc$GT$5alloc17h66850a7ae96c4e58E+0xc4>
  10515e:	49 83 fb 10          	cmp    $0x10,%r11
  105162:	72 cc                	jb     105130 <_ZN143_$LT$nothingos..allocator..Locked$LT$nothingos..allocator..linked_list..LinkedListAllocator$GT$$u20$as$u20$core..alloc..global..GlobalAlloc$GT$5alloc17h66850a7ae96c4e58E+0x90>
  105164:	49 8b 51 08          	mov    0x8(%r9),%rdx
  105168:	49 c7 41 08 00 00 00 	movq   $0x0,0x8(%r9)
  10516f:	00 
  105170:	49 8b 4a 08          	mov    0x8(%r10),%rcx
  105174:	49 c7 42 08 00 00 00 	movq   $0x0,0x8(%r10)
  10517b:	00 
  10517c:	48 85 c9             	test   %rcx,%rcx
  10517f:	74 6e                	je     1051ef <_ZN143_$LT$nothingos..allocator..Locked$LT$nothingos..allocator..linked_list..LinkedListAllocator$GT$$u20$as$u20$core..alloc..global..GlobalAlloc$GT$5alloc17h66850a7ae96c4e58E+0x14f>
  105181:	49 89 52 08          	mov    %rdx,0x8(%r10)
  105185:	48 03 09             	add    (%rcx),%rcx
  105188:	4c 29 c1             	sub    %r8,%rcx
  10518b:	74 2c                	je     1051b9 <_ZN143_$LT$nothingos..allocator..Locked$LT$nothingos..allocator..linked_list..LinkedListAllocator$GT$$u20$as$u20$core..alloc..global..GlobalAlloc$GT$5alloc17h66850a7ae96c4e58E+0x119>
  10518d:	4c 89 44 24 08       	mov    %r8,0x8(%rsp)
  105192:	49 8d 50 07          	lea    0x7(%r8),%rdx
  105196:	48 83 e2 f8          	and    $0xfffffffffffffff8,%rdx
  10519a:	48 89 54 24 10       	mov    %rdx,0x10(%rsp)
  10519f:	4c 39 c2             	cmp    %r8,%rdx
  1051a2:	75 57                	jne    1051fb <_ZN143_$LT$nothingos..allocator..Locked$LT$nothingos..allocator..linked_list..LinkedListAllocator$GT$$u20$as$u20$core..alloc..global..GlobalAlloc$GT$5alloc17h66850a7ae96c4e58E+0x15b>
  1051a4:	48 83 f9 0f          	cmp    $0xf,%rcx
  1051a8:	76 77                	jbe    105221 <_ZN143_$LT$nothingos..allocator..Locked$LT$nothingos..allocator..linked_list..LinkedListAllocator$GT$$u20$as$u20$core..alloc..global..GlobalAlloc$GT$5alloc17h66850a7ae96c4e58E+0x181>
  1051aa:	48 8b 57 10          	mov    0x10(%rdi),%rdx
  1051ae:	49 89 08             	mov    %rcx,(%r8)
  1051b1:	49 89 50 08          	mov    %rdx,0x8(%r8)
  1051b5:	4c 89 47 10          	mov    %r8,0x10(%rdi)
  1051b9:	c6 07 00             	movb   $0x0,(%rdi)
  1051bc:	48 83 c4 48          	add    $0x48,%rsp
  1051c0:	c3                   	ret
  1051c1:	31 c0                	xor    %eax,%eax
  1051c3:	c6 07 00             	movb   $0x0,(%rdi)
  1051c6:	48 83 c4 48          	add    $0x48,%rsp
  1051ca:	c3                   	ret
  1051cb:	48 8d 3d 6f cf ff ff 	lea    -0x3091(%rip),%rdi        # 102141 <anon.1be0d937aa00a9d86c21f10d2abd54a4.12.llvm.14514331053417067694>
  1051d2:	48 8d 0d 07 5b 01 00 	lea    0x15b07(%rip),%rcx        # 11ace0 <anon.1be0d937aa00a9d86c21f10d2abd54a4.13.llvm.14514331053417067694>
  1051d9:	4c 8d 05 20 5b 01 00 	lea    0x15b20(%rip),%r8        # 11ad00 <anon.1be0d937aa00a9d86c21f10d2abd54a4.14.llvm.14514331053417067694>
  1051e0:	48 8d 54 24 18       	lea    0x18(%rsp),%rdx
  1051e5:	be 1a 00 00 00       	mov    $0x1a,%esi
  1051ea:	e8 71 1b 01 00       	call   116d60 <_ZN4core6result13unwrap_failed17hf6308fed240e4aa6E>
  1051ef:	48 8d 3d d2 5a 01 00 	lea    0x15ad2(%rip),%rdi        # 11acc8 <anon.1be0d937aa00a9d86c21f10d2abd54a4.11.llvm.14514331053417067694>
  1051f6:	e8 d5 1a 01 00       	call   116cd0 <_ZN4core6option13unwrap_failed17he52d730686d7539bE>
  1051fb:	48 c7 44 24 18 00 00 	movq   $0x0,0x18(%rsp)
  105202:	00 00 
  105204:	4c 8d 05 8d 5a 01 00 	lea    0x15a8d(%rip),%r8        # 11ac98 <anon.1be0d937aa00a9d86c21f10d2abd54a4.8.llvm.14514331053417067694>
  10520b:	48 8d 74 24 10       	lea    0x10(%rsp),%rsi
  105210:	48 8d 54 24 08       	lea    0x8(%rsp),%rdx
  105215:	48 8d 4c 24 18       	lea    0x18(%rsp),%rcx
  10521a:	31 ff                	xor    %edi,%edi
  10521c:	e8 6f 3c 00 00       	call   108e90 <_ZN4core9panicking13assert_failed17h1f8f328b55860284E>
  105221:	48 8d 3d ea ce ff ff 	lea    -0x3116(%rip),%rdi        # 102112 <anon.1be0d937aa00a9d86c21f10d2abd54a4.9.llvm.14514331053417067694>
  105228:	48 8d 15 81 5a 01 00 	lea    0x15a81(%rip),%rdx        # 11acb0 <anon.1be0d937aa00a9d86c21f10d2abd54a4.10.llvm.14514331053417067694>
  10522f:	be 2f 00 00 00       	mov    $0x2f,%esi
  105234:	e8 87 02 01 00       	call   1154c0 <_ZN4core9panicking5panic17ha6ab4147e8d76f59E>
  105239:	0f 1f 80 00 00 00 00 	nopl   0x0(%rax)

0000000000105240 <_ZN9nothingos6memory15stack_allocator14StackAllocator11alloc_stack17heb2545691d6cdae9E>:
  105240:	55                   	push   %rbp
  105241:	41 57                	push   %r15
  105243:	41 56                	push   %r14
  105245:	41 55                	push   %r13
  105247:	41 54                	push   %r12
  105249:	53                   	push   %rbx
  10524a:	50                   	push   %rax
  10524b:	4d 85 c0             	test   %r8,%r8
  10524e:	74 56                	je     1052a6 <_ZN9nothingos6memory15stack_allocator14StackAllocator11alloc_stack17heb2545691d6cdae9E+0x66>
  105250:	48 89 cb             	mov    %rcx,%rbx
  105253:	49 89 d6             	mov    %rdx,%r14
  105256:	48 8b 16             	mov    (%rsi),%rdx
  105259:	48 8b 46 08          	mov    0x8(%rsi),%rax
  10525d:	31 c9                	xor    %ecx,%ecx
  10525f:	48 39 c2             	cmp    %rax,%rdx
  105262:	0f 96 c1             	setbe  %cl
  105265:	4c 8d 3c 0a          	lea    (%rdx,%rcx,1),%r15
  105269:	49 39 c7             	cmp    %rax,%r15
  10526c:	76 21                	jbe    10528f <_ZN9nothingos6memory15stack_allocator14StackAllocator11alloc_stack17heb2545691d6cdae9E+0x4f>
  10526e:	49 83 f8 01          	cmp    $0x1,%r8
  105272:	74 32                	je     1052a6 <_ZN9nothingos6memory15stack_allocator14StackAllocator11alloc_stack17heb2545691d6cdae9E+0x66>
  105274:	31 c9                	xor    %ecx,%ecx
  105276:	49 83 c0 fe          	add    $0xfffffffffffffffe,%r8
  10527a:	74 2c                	je     1052a8 <_ZN9nothingos6memory15stack_allocator14StackAllocator11alloc_stack17heb2545691d6cdae9E+0x68>
  10527c:	0f 1f 40 00          	nopl   0x0(%rax)
  105280:	49 39 c7             	cmp    %rax,%r15
  105283:	77 23                	ja     1052a8 <_ZN9nothingos6memory15stack_allocator14StackAllocator11alloc_stack17heb2545691d6cdae9E+0x68>
  105285:	49 ff c7             	inc    %r15
  105288:	49 ff c8             	dec    %r8
  10528b:	75 f3                	jne    105280 <_ZN9nothingos6memory15stack_allocator14StackAllocator11alloc_stack17heb2545691d6cdae9E+0x40>
  10528d:	eb 19                	jmp    1052a8 <_ZN9nothingos6memory15stack_allocator14StackAllocator11alloc_stack17heb2545691d6cdae9E+0x68>
  10528f:	4d 8d 67 01          	lea    0x1(%r15),%r12
  105293:	49 83 f8 01          	cmp    $0x1,%r8
  105297:	75 24                	jne    1052bd <_ZN9nothingos6memory15stack_allocator14StackAllocator11alloc_stack17heb2545691d6cdae9E+0x7d>
  105299:	48 39 c2             	cmp    %rax,%rdx
  10529c:	77 08                	ja     1052a6 <_ZN9nothingos6memory15stack_allocator14StackAllocator11alloc_stack17heb2545691d6cdae9E+0x66>
  10529e:	4c 89 26             	mov    %r12,(%rsi)
  1052a1:	4d 89 fc             	mov    %r15,%r12
  1052a4:	eb 63                	jmp    105309 <_ZN9nothingos6memory15stack_allocator14StackAllocator11alloc_stack17heb2545691d6cdae9E+0xc9>
  1052a6:	31 c9                	xor    %ecx,%ecx
  1052a8:	48 89 0f             	mov    %rcx,(%rdi)
  1052ab:	48 89 f8             	mov    %rdi,%rax
  1052ae:	48 83 c4 08          	add    $0x8,%rsp
  1052b2:	5b                   	pop    %rbx
  1052b3:	41 5c                	pop    %r12
  1052b5:	41 5d                	pop    %r13
  1052b7:	41 5e                	pop    %r14
  1052b9:	41 5f                	pop    %r15
  1052bb:	5d                   	pop    %rbp
  1052bc:	c3                   	ret
  1052bd:	4d 89 c1             	mov    %r8,%r9
  1052c0:	49 83 c1 fe          	add    $0xfffffffffffffffe,%r9
  1052c4:	74 2a                	je     1052f0 <_ZN9nothingos6memory15stack_allocator14StackAllocator11alloc_stack17heb2545691d6cdae9E+0xb0>
  1052c6:	49 01 d0             	add    %rdx,%r8
  1052c9:	49 01 c8             	add    %rcx,%r8
  1052cc:	49 ff c8             	dec    %r8
  1052cf:	31 c9                	xor    %ecx,%ecx
  1052d1:	66 66 66 66 66 66 2e 	data16 data16 data16 data16 data16 cs nopw 0x0(%rax,%rax,1)
  1052d8:	0f 1f 84 00 00 00 00 
  1052df:	00 
  1052e0:	49 39 c4             	cmp    %rax,%r12
  1052e3:	77 c3                	ja     1052a8 <_ZN9nothingos6memory15stack_allocator14StackAllocator11alloc_stack17heb2545691d6cdae9E+0x68>
  1052e5:	49 ff c4             	inc    %r12
  1052e8:	49 ff c9             	dec    %r9
  1052eb:	75 f3                	jne    1052e0 <_ZN9nothingos6memory15stack_allocator14StackAllocator11alloc_stack17heb2545691d6cdae9E+0xa0>
  1052ed:	4d 89 c4             	mov    %r8,%r12
  1052f0:	31 c9                	xor    %ecx,%ecx
  1052f2:	48 39 c2             	cmp    %rax,%rdx
  1052f5:	77 b1                	ja     1052a8 <_ZN9nothingos6memory15stack_allocator14StackAllocator11alloc_stack17heb2545691d6cdae9E+0x68>
  1052f7:	49 39 c4             	cmp    %rax,%r12
  1052fa:	77 ac                	ja     1052a8 <_ZN9nothingos6memory15stack_allocator14StackAllocator11alloc_stack17heb2545691d6cdae9E+0x68>
  1052fc:	49 8d 44 24 01       	lea    0x1(%r12),%rax
  105301:	48 89 06             	mov    %rax,(%rsi)
  105304:	4d 39 e7             	cmp    %r12,%r15
  105307:	77 36                	ja     10533f <_ZN9nothingos6memory15stack_allocator14StackAllocator11alloc_stack17heb2545691d6cdae9E+0xff>
  105309:	49 89 fd             	mov    %rdi,%r13
  10530c:	49 83 c6 08          	add    $0x8,%r14
  105310:	4c 89 fe             	mov    %r15,%rsi
  105313:	66 66 66 66 2e 0f 1f 	data16 data16 data16 cs nopw 0x0(%rax,%rax,1)
  10531a:	84 00 00 00 00 00 
  105320:	48 8d 6e 01          	lea    0x1(%rsi),%rbp
  105324:	ba 02 00 00 00       	mov    $0x2,%edx
  105329:	4c 89 f7             	mov    %r14,%rdi
  10532c:	48 89 d9             	mov    %rbx,%rcx
  10532f:	e8 1c a5 00 00       	call   10f850 <_ZN9nothingos6memory6paging6mapper6Mapper3map17h8f217c56f55f9ee4E>
  105334:	48 89 ee             	mov    %rbp,%rsi
  105337:	4c 39 e5             	cmp    %r12,%rbp
  10533a:	76 e4                	jbe    105320 <_ZN9nothingos6memory15stack_allocator14StackAllocator11alloc_stack17heb2545691d6cdae9E+0xe0>
  10533c:	4c 89 ef             	mov    %r13,%rdi
  10533f:	49 c1 e4 0c          	shl    $0xc,%r12
  105343:	49 81 c4 00 10 00 00 	add    $0x1000,%r12
  10534a:	49 c1 e7 0c          	shl    $0xc,%r15
  10534e:	4d 39 fc             	cmp    %r15,%r12
  105351:	76 12                	jbe    105365 <_ZN9nothingos6memory15stack_allocator14StackAllocator11alloc_stack17heb2545691d6cdae9E+0x125>
  105353:	4c 89 67 08          	mov    %r12,0x8(%rdi)
  105357:	4c 89 7f 10          	mov    %r15,0x10(%rdi)
  10535b:	b9 01 00 00 00       	mov    $0x1,%ecx
  105360:	e9 43 ff ff ff       	jmp    1052a8 <_ZN9nothingos6memory15stack_allocator14StackAllocator11alloc_stack17heb2545691d6cdae9E+0x68>
  105365:	48 8d 3d 10 b5 ff ff 	lea    -0x4af0(%rip),%rdi        # 10087c <anon.413f3d0055880a1b35ba79aaf75bd500.11.llvm.10293348477465442824>
  10536c:	48 8d 15 25 31 01 00 	lea    0x13125(%rip),%rdx        # 118498 <anon.413f3d0055880a1b35ba79aaf75bd500.13.llvm.10293348477465442824>
  105373:	be 1e 00 00 00       	mov    $0x1e,%esi
  105378:	e8 43 01 01 00       	call   1154c0 <_ZN4core9panicking5panic17ha6ab4147e8d76f59E>
  10537d:	0f 1f 00             	nopl   (%rax)

0000000000105380 <__rust_alloc>:
  105380:	48 89 fa             	mov    %rdi,%rdx
  105383:	48 8d 3d 7e 6c 01 00 	lea    0x16c7e(%rip),%rdi        # 11c008 <_ZN9nothingos9allocator16GLOBAL_ALLOCATOR17hf60b19268c11c607E.llvm.10293348477465442824>
  10538a:	e9 11 fd ff ff       	jmp    1050a0 <_ZN143_$LT$nothingos..allocator..Locked$LT$nothingos..allocator..linked_list..LinkedListAllocator$GT$$u20$as$u20$core..alloc..global..GlobalAlloc$GT$5alloc17h66850a7ae96c4e58E>
  10538f:	90                   	nop

0000000000105390 <__rust_dealloc>:
  105390:	48 83 ec 48          	sub    $0x48,%rsp
  105394:	48 83 fa 09          	cmp    $0x9,%rdx
  105398:	b9 08 00 00 00       	mov    $0x8,%ecx
  10539d:	48 0f 43 ca          	cmovae %rdx,%rcx
  1053a1:	48 8d 41 ff          	lea    -0x1(%rcx),%rax
  1053a5:	48 85 c1             	test   %rax,%rcx
  1053a8:	0f 85 93 00 00 00    	jne    105441 <__rust_dealloc+0xb1>
  1053ae:	48 b8 00 00 00 00 00 	movabs $0x8000000000000000,%rax
  1053b5:	00 00 80 
  1053b8:	48 29 c8             	sub    %rcx,%rax
  1053bb:	48 39 f0             	cmp    %rsi,%rax
  1053be:	0f 82 7d 00 00 00    	jb     105441 <__rust_dealloc+0xb1>
  1053c4:	b2 01                	mov    $0x1,%dl
  1053c6:	66 2e 0f 1f 84 00 00 	cs nopw 0x0(%rax,%rax,1)
  1053cd:	00 00 00 
  1053d0:	31 c0                	xor    %eax,%eax
  1053d2:	f0 0f b0 15 2e 6c 01 	lock cmpxchg %dl,0x16c2e(%rip)        # 11c008 <_ZN9nothingos9allocator16GLOBAL_ALLOCATOR17hf60b19268c11c607E.llvm.10293348477465442824>
  1053d9:	00 
  1053da:	75 06                	jne    1053e2 <__rust_dealloc+0x52>
  1053dc:	eb 11                	jmp    1053ef <__rust_dealloc+0x5f>
  1053de:	66 90                	xchg   %ax,%ax
  1053e0:	f3 90                	pause
  1053e2:	0f b6 05 1f 6c 01 00 	movzbl 0x16c1f(%rip),%eax        # 11c008 <_ZN9nothingos9allocator16GLOBAL_ALLOCATOR17hf60b19268c11c607E.llvm.10293348477465442824>
  1053e9:	84 c0                	test   %al,%al
  1053eb:	75 f3                	jne    1053e0 <__rust_dealloc+0x50>
  1053ed:	eb e1                	jmp    1053d0 <__rust_dealloc+0x40>
  1053ef:	48 89 7c 24 08       	mov    %rdi,0x8(%rsp)
  1053f4:	48 8d 47 07          	lea    0x7(%rdi),%rax
  1053f8:	48 83 e0 f8          	and    $0xfffffffffffffff8,%rax
  1053fc:	48 89 44 24 10       	mov    %rax,0x10(%rsp)
  105401:	48 39 f8             	cmp    %rdi,%rax
  105404:	75 5f                	jne    105465 <__rust_dealloc+0xd5>
  105406:	48 8d 04 0e          	lea    (%rsi,%rcx,1),%rax
  10540a:	48 ff c8             	dec    %rax
  10540d:	48 f7 d9             	neg    %rcx
  105410:	48 21 c1             	and    %rax,%rcx
  105413:	48 83 f9 11          	cmp    $0x11,%rcx
  105417:	b8 10 00 00 00       	mov    $0x10,%eax
  10541c:	48 0f 43 c1          	cmovae %rcx,%rax
  105420:	48 8b 0d f1 6b 01 00 	mov    0x16bf1(%rip),%rcx        # 11c018 <_ZN9nothingos9allocator16GLOBAL_ALLOCATOR17hf60b19268c11c607E.llvm.10293348477465442824+0x10>
  105427:	48 89 07             	mov    %rax,(%rdi)
  10542a:	48 89 4f 08          	mov    %rcx,0x8(%rdi)
  10542e:	48 89 3d e3 6b 01 00 	mov    %rdi,0x16be3(%rip)        # 11c018 <_ZN9nothingos9allocator16GLOBAL_ALLOCATOR17hf60b19268c11c607E.llvm.10293348477465442824+0x10>
  105435:	c6 05 cc 6b 01 00 00 	movb   $0x0,0x16bcc(%rip)        # 11c008 <_ZN9nothingos9allocator16GLOBAL_ALLOCATOR17hf60b19268c11c607E.llvm.10293348477465442824>
  10543c:	48 83 c4 48          	add    $0x48,%rsp
  105440:	c3                   	ret
  105441:	48 8d 3d f9 cc ff ff 	lea    -0x3307(%rip),%rdi        # 102141 <anon.1be0d937aa00a9d86c21f10d2abd54a4.12.llvm.14514331053417067694>
  105448:	48 8d 0d 91 58 01 00 	lea    0x15891(%rip),%rcx        # 11ace0 <anon.1be0d937aa00a9d86c21f10d2abd54a4.13.llvm.14514331053417067694>
  10544f:	4c 8d 05 aa 58 01 00 	lea    0x158aa(%rip),%r8        # 11ad00 <anon.1be0d937aa00a9d86c21f10d2abd54a4.14.llvm.14514331053417067694>
  105456:	48 8d 54 24 18       	lea    0x18(%rsp),%rdx
  10545b:	be 1a 00 00 00       	mov    $0x1a,%esi
  105460:	e8 fb 18 01 00       	call   116d60 <_ZN4core6result13unwrap_failed17hf6308fed240e4aa6E>
  105465:	48 c7 44 24 18 00 00 	movq   $0x0,0x18(%rsp)
  10546c:	00 00 
  10546e:	4c 8d 05 23 58 01 00 	lea    0x15823(%rip),%r8        # 11ac98 <anon.1be0d937aa00a9d86c21f10d2abd54a4.8.llvm.14514331053417067694>
  105475:	48 8d 74 24 10       	lea    0x10(%rsp),%rsi
  10547a:	48 8d 54 24 08       	lea    0x8(%rsp),%rdx
  10547f:	48 8d 4c 24 18       	lea    0x18(%rsp),%rcx
  105484:	31 ff                	xor    %edi,%edi
  105486:	e8 05 3a 00 00       	call   108e90 <_ZN4core9panicking13assert_failed17h1f8f328b55860284E>
  10548b:	0f 1f 44 00 00       	nopl   0x0(%rax,%rax,1)

0000000000105490 <__rust_realloc>:
  105490:	41 57                	push   %r15
  105492:	41 56                	push   %r14
  105494:	41 55                	push   %r13
  105496:	41 54                	push   %r12
  105498:	53                   	push   %rbx
  105499:	48 83 ec 40          	sub    $0x40,%rsp
  10549d:	49 89 cc             	mov    %rcx,%r12
  1054a0:	49 89 d7             	mov    %rdx,%r15
  1054a3:	49 89 f6             	mov    %rsi,%r14
  1054a6:	48 89 fb             	mov    %rdi,%rbx
  1054a9:	48 8d 3d 58 6b 01 00 	lea    0x16b58(%rip),%rdi        # 11c008 <_ZN9nothingos9allocator16GLOBAL_ALLOCATOR17hf60b19268c11c607E.llvm.10293348477465442824>
  1054b0:	48 89 d6             	mov    %rdx,%rsi
  1054b3:	48 89 ca             	mov    %rcx,%rdx
  1054b6:	e8 e5 fb ff ff       	call   1050a0 <_ZN143_$LT$nothingos..allocator..Locked$LT$nothingos..allocator..linked_list..LinkedListAllocator$GT$$u20$as$u20$core..alloc..global..GlobalAlloc$GT$5alloc17h66850a7ae96c4e58E>
  1054bb:	48 85 c0             	test   %rax,%rax
  1054be:	0f 84 c0 00 00 00    	je     105584 <__rust_realloc+0xf4>
  1054c4:	4d 39 e6             	cmp    %r12,%r14
  1054c7:	4d 0f 42 e6          	cmovb  %r14,%r12
  1054cb:	49 89 c5             	mov    %rax,%r13
  1054ce:	48 89 c7             	mov    %rax,%rdi
  1054d1:	48 89 de             	mov    %rbx,%rsi
  1054d4:	4c 89 e2             	mov    %r12,%rdx
  1054d7:	e8 14 19 01 00       	call   116df0 <memcpy>
  1054dc:	49 83 ff 09          	cmp    $0x9,%r15
  1054e0:	b8 08 00 00 00       	mov    $0x8,%eax
  1054e5:	49 0f 43 c7          	cmovae %r15,%rax
  1054e9:	48 8d 48 ff          	lea    -0x1(%rax),%rcx
  1054ed:	48 85 c8             	test   %rcx,%rax
  1054f0:	0f 85 9c 00 00 00    	jne    105592 <__rust_realloc+0x102>
  1054f6:	48 b9 00 00 00 00 00 	movabs $0x8000000000000000,%rcx
  1054fd:	00 00 80 
  105500:	48 29 c1             	sub    %rax,%rcx
  105503:	4c 39 f1             	cmp    %r14,%rcx
  105506:	0f 82 86 00 00 00    	jb     105592 <__rust_realloc+0x102>
  10550c:	49 8d 0c 06          	lea    (%r14,%rax,1),%rcx
  105510:	48 ff c9             	dec    %rcx
  105513:	48 f7 d8             	neg    %rax
  105516:	48 21 c8             	and    %rcx,%rax
  105519:	48 83 f8 11          	cmp    $0x11,%rax
  10551d:	b9 10 00 00 00       	mov    $0x10,%ecx
  105522:	48 0f 43 c8          	cmovae %rax,%rcx
  105526:	b2 01                	mov    $0x1,%dl
  105528:	0f 1f 84 00 00 00 00 	nopl   0x0(%rax,%rax,1)
  10552f:	00 
  105530:	31 c0                	xor    %eax,%eax
  105532:	f0 0f b0 15 ce 6a 01 	lock cmpxchg %dl,0x16ace(%rip)        # 11c008 <_ZN9nothingos9allocator16GLOBAL_ALLOCATOR17hf60b19268c11c607E.llvm.10293348477465442824>
  105539:	00 
  10553a:	75 06                	jne    105542 <__rust_realloc+0xb2>
  10553c:	eb 11                	jmp    10554f <__rust_realloc+0xbf>
  10553e:	66 90                	xchg   %ax,%ax
  105540:	f3 90                	pause
  105542:	0f b6 05 bf 6a 01 00 	movzbl 0x16abf(%rip),%eax        # 11c008 <_ZN9nothingos9allocator16GLOBAL_ALLOCATOR17hf60b19268c11c607E.llvm.10293348477465442824>
  105549:	84 c0                	test   %al,%al
  10554b:	75 f3                	jne    105540 <__rust_realloc+0xb0>
  10554d:	eb e1                	jmp    105530 <__rust_realloc+0xa0>
  10554f:	48 89 1c 24          	mov    %rbx,(%rsp)
  105553:	48 8d 43 07          	lea    0x7(%rbx),%rax
  105557:	48 83 e0 f8          	and    $0xfffffffffffffff8,%rax
  10555b:	48 89 44 24 08       	mov    %rax,0x8(%rsp)
  105560:	48 39 d8             	cmp    %rbx,%rax
  105563:	75 51                	jne    1055b6 <__rust_realloc+0x126>
  105565:	48 8b 05 ac 6a 01 00 	mov    0x16aac(%rip),%rax        # 11c018 <_ZN9nothingos9allocator16GLOBAL_ALLOCATOR17hf60b19268c11c607E.llvm.10293348477465442824+0x10>
  10556c:	48 89 0b             	mov    %rcx,(%rbx)
  10556f:	48 89 43 08          	mov    %rax,0x8(%rbx)
  105573:	48 89 1d 9e 6a 01 00 	mov    %rbx,0x16a9e(%rip)        # 11c018 <_ZN9nothingos9allocator16GLOBAL_ALLOCATOR17hf60b19268c11c607E.llvm.10293348477465442824+0x10>
  10557a:	c6 05 87 6a 01 00 00 	movb   $0x0,0x16a87(%rip)        # 11c008 <_ZN9nothingos9allocator16GLOBAL_ALLOCATOR17hf60b19268c11c607E.llvm.10293348477465442824>
  105581:	4c 89 e8             	mov    %r13,%rax
  105584:	48 83 c4 40          	add    $0x40,%rsp
  105588:	5b                   	pop    %rbx
  105589:	41 5c                	pop    %r12
  10558b:	41 5d                	pop    %r13
  10558d:	41 5e                	pop    %r14
  10558f:	41 5f                	pop    %r15
  105591:	c3                   	ret
  105592:	48 8d 3d a8 cb ff ff 	lea    -0x3458(%rip),%rdi        # 102141 <anon.1be0d937aa00a9d86c21f10d2abd54a4.12.llvm.14514331053417067694>
  105599:	48 8d 0d 40 57 01 00 	lea    0x15740(%rip),%rcx        # 11ace0 <anon.1be0d937aa00a9d86c21f10d2abd54a4.13.llvm.14514331053417067694>
  1055a0:	4c 8d 05 59 57 01 00 	lea    0x15759(%rip),%r8        # 11ad00 <anon.1be0d937aa00a9d86c21f10d2abd54a4.14.llvm.14514331053417067694>
  1055a7:	48 8d 54 24 10       	lea    0x10(%rsp),%rdx
  1055ac:	be 1a 00 00 00       	mov    $0x1a,%esi
  1055b1:	e8 aa 17 01 00       	call   116d60 <_ZN4core6result13unwrap_failed17hf6308fed240e4aa6E>
  1055b6:	48 c7 44 24 10 00 00 	movq   $0x0,0x10(%rsp)
  1055bd:	00 00 
  1055bf:	4c 8d 05 d2 56 01 00 	lea    0x156d2(%rip),%r8        # 11ac98 <anon.1be0d937aa00a9d86c21f10d2abd54a4.8.llvm.14514331053417067694>
  1055c6:	48 8d 74 24 08       	lea    0x8(%rsp),%rsi
  1055cb:	48 89 e2             	mov    %rsp,%rdx
  1055ce:	48 8d 4c 24 10       	lea    0x10(%rsp),%rcx
  1055d3:	31 ff                	xor    %edi,%edi
  1055d5:	e8 b6 38 00 00       	call   108e90 <_ZN4core9panicking13assert_failed17h1f8f328b55860284E>
  1055da:	66 0f 1f 44 00 00    	nopw   0x0(%rax,%rax,1)

00000000001055e0 <_ZN12conquer_once4cell21OnceCell$LT$T$C$B$GT$13try_init_once28_$u7b$$u7b$closure$u7d$$u7d$17h44ee7dcdf5a82c11E.llvm.3069385760615976897>:
  1055e0:	41 56                	push   %r14
  1055e2:	53                   	push   %rbx
  1055e3:	48 81 ec 28 06 00 00 	sub    $0x628,%rsp
  1055ea:	48 8b 06             	mov    (%rsi),%rax
  1055ed:	80 38 00             	cmpb   $0x0,(%rax)
  1055f0:	c6 00 00             	movb   $0x0,(%rax)
  1055f3:	0f 84 cc 00 00 00    	je     1056c5 <_ZN12conquer_once4cell21OnceCell$LT$T$C$B$GT$13try_init_once28_$u7b$$u7b$closure$u7d$$u7d$17h44ee7dcdf5a82c11E.llvm.3069385760615976897+0xe5>
  1055f9:	48 89 fb             	mov    %rdi,%rbx
  1055fc:	c6 44 24 4a 0c       	movb   $0xc,0x4a(%rsp)
  105601:	c7 44 24 40 00 00 00 	movl   $0x0,0x40(%rsp)
  105608:	00 
  105609:	66 c7 44 24 48 02 03 	movw   $0x302,0x48(%rsp)
  105610:	48 c7 04 24 01 00 00 	movq   $0x1,(%rsp)
  105617:	00 
  105618:	48 c7 44 24 08 20 00 	movq   $0x20,0x8(%rsp)
  10561f:	00 00 
  105621:	48 c7 44 24 10 01 00 	movq   $0x1,0x10(%rsp)
  105628:	00 00 
  10562a:	48 c7 44 24 18 20 00 	movq   $0x20,0x18(%rsp)
  105631:	00 00 
  105633:	48 c7 44 24 20 01 00 	movq   $0x1,0x20(%rsp)
  10563a:	00 00 
  10563c:	48 c7 44 24 28 20 00 	movq   $0x20,0x28(%rsp)
  105643:	00 00 
  105645:	48 c7 44 24 30 01 00 	movq   $0x1,0x30(%rsp)
  10564c:	00 00 
  10564e:	48 c7 44 24 38 00 00 	movq   $0xfffffffffff00000,0x38(%rsp)
  105655:	f0 ff 
  105657:	48 8d 7c 24 50       	lea    0x50(%rsp),%rdi
  10565c:	48 89 e6             	mov    %rsp,%rsi
  10565f:	e8 0c b9 00 00       	call   110f70 <_ZN6x2apic5lapic7builder16LocalApicBuilder5build17hd9b59054a9404dbfE>
  105664:	83 7c 24 50 02       	cmpl   $0x2,0x50(%rsp)
  105669:	74 66                	je     1056d1 <_ZN12conquer_once4cell21OnceCell$LT$T$C$B$GT$13try_init_once28_$u7b$$u7b$closure$u7d$$u7d$17h44ee7dcdf5a82c11E.llvm.3069385760615976897+0xf1>
  10566b:	4c 8d b4 24 40 03 00 	lea    0x340(%rsp),%r14
  105672:	00 
  105673:	48 8d 74 24 50       	lea    0x50(%rsp),%rsi
  105678:	ba e8 02 00 00       	mov    $0x2e8,%edx
  10567d:	4c 89 f7             	mov    %r14,%rdi
  105680:	e8 6b 17 01 00       	call   116df0 <memcpy>
  105685:	4c 89 f7             	mov    %r14,%rdi
  105688:	e8 73 ba 00 00       	call   111100 <_ZN6x2apic5lapic9LocalApic6enable17h21509b15e6549c4dE>
  10568d:	48 8d 7c 24 57       	lea    0x57(%rsp),%rdi
  105692:	ba e8 02 00 00       	mov    $0x2e8,%edx
  105697:	4c 89 f6             	mov    %r14,%rsi
  10569a:	e8 51 17 01 00       	call   116df0 <memcpy>
  10569f:	c6 03 00             	movb   $0x0,(%rbx)
  1056a2:	48 89 df             	mov    %rbx,%rdi
  1056a5:	48 ff c7             	inc    %rdi
  1056a8:	48 8d 74 24 50       	lea    0x50(%rsp),%rsi
  1056ad:	ba ef 02 00 00       	mov    $0x2ef,%edx
  1056b2:	e8 39 17 01 00       	call   116df0 <memcpy>
  1056b7:	48 89 d8             	mov    %rbx,%rax
  1056ba:	48 81 c4 28 06 00 00 	add    $0x628,%rsp
  1056c1:	5b                   	pop    %rbx
  1056c2:	41 5e                	pop    %r14
  1056c4:	c3                   	ret
  1056c5:	48 8d 3d 6c 2e 01 00 	lea    0x12e6c(%rip),%rdi        # 118538 <anon.c6e67b0d64c1d692816e5ffda0fd144d.5.llvm.3069385760615976897+0x28>
  1056cc:	e8 ff 15 01 00       	call   116cd0 <_ZN4core6option13unwrap_failed17he52d730686d7539bE>
  1056d1:	48 8b 44 24 58       	mov    0x58(%rsp),%rax
  1056d6:	48 8b 4c 24 60       	mov    0x60(%rsp),%rcx
  1056db:	48 89 84 24 40 03 00 	mov    %rax,0x340(%rsp)
  1056e2:	00 
  1056e3:	48 89 8c 24 48 03 00 	mov    %rcx,0x348(%rsp)
  1056ea:	00 
  1056eb:	48 8d 3d 71 b3 ff ff 	lea    -0x4c8f(%rip),%rdi        # 100a63 <anon.c6e67b0d64c1d692816e5ffda0fd144d.8.llvm.3069385760615976897+0x128>
  1056f2:	48 8d 0d 17 32 01 00 	lea    0x13217(%rip),%rcx        # 118910 <_ZN9nothingos9interrupt6LAPICS17h0361f45f0af18b28E+0x2f8>
  1056f9:	4c 8d 05 30 32 01 00 	lea    0x13230(%rip),%r8        # 118930 <_ZN9nothingos9interrupt6LAPICS17h0361f45f0af18b28E+0x318>
  105700:	48 8d 94 24 40 03 00 	lea    0x340(%rsp),%rdx
  105707:	00 
  105708:	be 16 00 00 00       	mov    $0x16,%esi
  10570d:	e8 4e 16 01 00       	call   116d60 <_ZN4core6result13unwrap_failed17hf6308fed240e4aa6E>
  105712:	66 2e 0f 1f 84 00 00 	cs nopw 0x0(%rax,%rax,1)
  105719:	00 00 00 
  10571c:	0f 1f 40 00          	nopl   0x0(%rax)

0000000000105720 <_ZN12conquer_once4cell21OnceCell$LT$T$C$B$GT$13try_init_once28_$u7b$$u7b$closure$u7d$$u7d$17hbdaa83e1e10cc4fbE.llvm.3069385760615976897>:
  105720:	48 8b 07             	mov    (%rdi),%rax
  105723:	80 38 00             	cmpb   $0x0,(%rax)
  105726:	c6 00 00             	movb   $0x0,(%rax)
  105729:	74 0b                	je     105736 <_ZN12conquer_once4cell21OnceCell$LT$T$C$B$GT$13try_init_once28_$u7b$$u7b$closure$u7d$$u7d$17hbdaa83e1e10cc4fbE.llvm.3069385760615976897+0x16>
  10572b:	48 b8 00 00 fc 0c f8 	movabs $0xcf80cfc0000,%rax
  105732:	0c 00 00 
  105735:	c3                   	ret
  105736:	50                   	push   %rax
  105737:	48 8d 3d fa 2d 01 00 	lea    0x12dfa(%rip),%rdi        # 118538 <anon.c6e67b0d64c1d692816e5ffda0fd144d.5.llvm.3069385760615976897+0x28>
  10573e:	e8 8d 15 01 00       	call   116cd0 <_ZN4core6option13unwrap_failed17he52d730686d7539bE>
  105743:	66 2e 0f 1f 84 00 00 	cs nopw 0x0(%rax,%rax,1)
  10574a:	00 00 00 
  10574d:	0f 1f 00             	nopl   (%rax)

0000000000105750 <_ZN4core3ops8function6FnOnce40call_once$u7b$$u7b$vtable.shim$u7d$$u7d$17h72cc9c644ac001b9E.llvm.3069385760615976897>:
  105750:	48 8b 07             	mov    (%rdi),%rax
  105753:	80 38 00             	cmpb   $0x0,(%rax)
  105756:	c6 00 00             	movb   $0x0,(%rax)
  105759:	74 0b                	je     105766 <_ZN4core3ops8function6FnOnce40call_once$u7b$$u7b$vtable.shim$u7d$$u7d$17h72cc9c644ac001b9E.llvm.3069385760615976897+0x16>
  10575b:	48 b8 00 00 fc 0c f8 	movabs $0xcf80cfc0000,%rax
  105762:	0c 00 00 
  105765:	c3                   	ret
  105766:	50                   	push   %rax
  105767:	48 8d 3d ca 2d 01 00 	lea    0x12dca(%rip),%rdi        # 118538 <anon.c6e67b0d64c1d692816e5ffda0fd144d.5.llvm.3069385760615976897+0x28>
  10576e:	e8 5d 15 01 00       	call   116cd0 <_ZN4core6option13unwrap_failed17he52d730686d7539bE>
  105773:	66 2e 0f 1f 84 00 00 	cs nopw 0x0(%rax,%rax,1)
  10577a:	00 00 00 
  10577d:	0f 1f 00             	nopl   (%rax)

0000000000105780 <_ZN4core3ops8function6FnOnce40call_once$u7b$$u7b$vtable.shim$u7d$$u7d$17hf504ce1db6c9f219E.llvm.3069385760615976897>:
  105780:	41 56                	push   %r14
  105782:	53                   	push   %rbx
  105783:	48 81 ec 28 06 00 00 	sub    $0x628,%rsp
  10578a:	48 8b 06             	mov    (%rsi),%rax
  10578d:	80 38 00             	cmpb   $0x0,(%rax)
  105790:	c6 00 00             	movb   $0x0,(%rax)
  105793:	0f 84 cc 00 00 00    	je     105865 <_ZN4core3ops8function6FnOnce40call_once$u7b$$u7b$vtable.shim$u7d$$u7d$17hf504ce1db6c9f219E.llvm.3069385760615976897+0xe5>
  105799:	48 89 fb             	mov    %rdi,%rbx
  10579c:	c6 44 24 4a 0c       	movb   $0xc,0x4a(%rsp)
  1057a1:	c7 44 24 40 00 00 00 	movl   $0x0,0x40(%rsp)
  1057a8:	00 
  1057a9:	66 c7 44 24 48 02 03 	movw   $0x302,0x48(%rsp)
  1057b0:	48 c7 04 24 01 00 00 	movq   $0x1,(%rsp)
  1057b7:	00 
  1057b8:	48 c7 44 24 08 20 00 	movq   $0x20,0x8(%rsp)
  1057bf:	00 00 
  1057c1:	48 c7 44 24 10 01 00 	movq   $0x1,0x10(%rsp)
  1057c8:	00 00 
  1057ca:	48 c7 44 24 18 20 00 	movq   $0x20,0x18(%rsp)
  1057d1:	00 00 
  1057d3:	48 c7 44 24 20 01 00 	movq   $0x1,0x20(%rsp)
  1057da:	00 00 
  1057dc:	48 c7 44 24 28 20 00 	movq   $0x20,0x28(%rsp)
  1057e3:	00 00 
  1057e5:	48 c7 44 24 30 01 00 	movq   $0x1,0x30(%rsp)
  1057ec:	00 00 
  1057ee:	48 c7 44 24 38 00 00 	movq   $0xfffffffffff00000,0x38(%rsp)
  1057f5:	f0 ff 
  1057f7:	48 8d 7c 24 50       	lea    0x50(%rsp),%rdi
  1057fc:	48 89 e6             	mov    %rsp,%rsi
  1057ff:	e8 6c b7 00 00       	call   110f70 <_ZN6x2apic5lapic7builder16LocalApicBuilder5build17hd9b59054a9404dbfE>
  105804:	83 7c 24 50 02       	cmpl   $0x2,0x50(%rsp)
  105809:	74 66                	je     105871 <_ZN4core3ops8function6FnOnce40call_once$u7b$$u7b$vtable.shim$u7d$$u7d$17hf504ce1db6c9f219E.llvm.3069385760615976897+0xf1>
  10580b:	4c 8d b4 24 40 03 00 	lea    0x340(%rsp),%r14
  105812:	00 
  105813:	48 8d 74 24 50       	lea    0x50(%rsp),%rsi
  105818:	ba e8 02 00 00       	mov    $0x2e8,%edx
  10581d:	4c 89 f7             	mov    %r14,%rdi
  105820:	e8 cb 15 01 00       	call   116df0 <memcpy>
  105825:	4c 89 f7             	mov    %r14,%rdi
  105828:	e8 d3 b8 00 00       	call   111100 <_ZN6x2apic5lapic9LocalApic6enable17h21509b15e6549c4dE>
  10582d:	48 8d 7c 24 57       	lea    0x57(%rsp),%rdi
  105832:	ba e8 02 00 00       	mov    $0x2e8,%edx
  105837:	4c 89 f6             	mov    %r14,%rsi
  10583a:	e8 b1 15 01 00       	call   116df0 <memcpy>
  10583f:	c6 03 00             	movb   $0x0,(%rbx)
  105842:	48 89 df             	mov    %rbx,%rdi
  105845:	48 ff c7             	inc    %rdi
  105848:	48 8d 74 24 50       	lea    0x50(%rsp),%rsi
  10584d:	ba ef 02 00 00       	mov    $0x2ef,%edx
  105852:	e8 99 15 01 00       	call   116df0 <memcpy>
  105857:	48 89 d8             	mov    %rbx,%rax
  10585a:	48 81 c4 28 06 00 00 	add    $0x628,%rsp
  105861:	5b                   	pop    %rbx
  105862:	41 5e                	pop    %r14
  105864:	c3                   	ret
  105865:	48 8d 3d cc 2c 01 00 	lea    0x12ccc(%rip),%rdi        # 118538 <anon.c6e67b0d64c1d692816e5ffda0fd144d.5.llvm.3069385760615976897+0x28>
  10586c:	e8 5f 14 01 00       	call   116cd0 <_ZN4core6option13unwrap_failed17he52d730686d7539bE>
  105871:	48 8b 44 24 58       	mov    0x58(%rsp),%rax
  105876:	48 8b 4c 24 60       	mov    0x60(%rsp),%rcx
  10587b:	48 89 84 24 40 03 00 	mov    %rax,0x340(%rsp)
  105882:	00 
  105883:	48 89 8c 24 48 03 00 	mov    %rcx,0x348(%rsp)
  10588a:	00 
  10588b:	48 8d 3d d1 b1 ff ff 	lea    -0x4e2f(%rip),%rdi        # 100a63 <anon.c6e67b0d64c1d692816e5ffda0fd144d.8.llvm.3069385760615976897+0x128>
  105892:	48 8d 0d 77 30 01 00 	lea    0x13077(%rip),%rcx        # 118910 <_ZN9nothingos9interrupt6LAPICS17h0361f45f0af18b28E+0x2f8>
  105899:	4c 8d 05 90 30 01 00 	lea    0x13090(%rip),%r8        # 118930 <_ZN9nothingos9interrupt6LAPICS17h0361f45f0af18b28E+0x318>
  1058a0:	48 8d 94 24 40 03 00 	lea    0x340(%rsp),%rdx
  1058a7:	00 
  1058a8:	be 16 00 00 00       	mov    $0x16,%esi
  1058ad:	e8 ae 14 01 00       	call   116d60 <_ZN4core6result13unwrap_failed17hf6308fed240e4aa6E>
  1058b2:	66 2e 0f 1f 84 00 00 	cs nopw 0x0(%rax,%rax,1)
  1058b9:	00 00 00 
  1058bc:	0f 1f 40 00          	nopl   0x0(%rax)

00000000001058c0 <_ZN4core3ptr251drop_in_place$LT$conquer_once..cell..OnceCell$LT$spin..mutex..Mutex$LT$x2apic..lapic..LocalApic$GT$$C$conquer_once..spin..internal..Spin$GT$..try_init_once$LT$nothingos..interrupt..init..$u7b$$u7b$closure$u7d$$u7d$$GT$..$u7b$$u7b$closure$u7d$$u7d$$GT$17hf329974d330e4b18E.llvm.3069385760615976897>:
  1058c0:	c3                   	ret
  1058c1:	66 2e 0f 1f 84 00 00 	cs nopw 0x0(%rax,%rax,1)
  1058c8:	00 00 00 
  1058cb:	0f 1f 44 00 00       	nopl   0x0(%rax,%rax,1)

00000000001058d0 <_ZN4core3ptr49drop_in_place$LT$uart_16550..port..SerialPort$GT$17hf7c95cc13fcdcb4aE>:
  1058d0:	c3                   	ret
  1058d1:	66 2e 0f 1f 84 00 00 	cs nopw 0x0(%rax,%rax,1)
  1058d8:	00 00 00 
  1058db:	0f 1f 44 00 00       	nopl   0x0(%rax,%rax,1)

00000000001058e0 <_ZN4core3ptr53drop_in_place$LT$conquer_once..state..PoisonError$GT$17ha9f58fc10da553fbE.llvm.3069385760615976897>:
  1058e0:	c3                   	ret
  1058e1:	66 2e 0f 1f 84 00 00 	cs nopw 0x0(%rax,%rax,1)
  1058e8:	00 00 00 
  1058eb:	0f 1f 44 00 00       	nopl   0x0(%rax,%rax,1)

00000000001058f0 <_ZN53_$LT$core..fmt..Error$u20$as$u20$core..fmt..Debug$GT$3fmt17hd1558d5fae9db22dE>:
  1058f0:	48 89 f7             	mov    %rsi,%rdi
  1058f3:	48 8d 35 a1 b0 ff ff 	lea    -0x4f5f(%rip),%rsi        # 10099b <anon.c6e67b0d64c1d692816e5ffda0fd144d.8.llvm.3069385760615976897+0x60>
  1058fa:	ba 05 00 00 00       	mov    $0x5,%edx
  1058ff:	e9 7c ea 00 00       	jmp    114380 <_ZN4core3fmt9Formatter9write_str17h8eb588591b035279E>
  105904:	66 2e 0f 1f 84 00 00 	cs nopw 0x0(%rax,%rax,1)
  10590b:	00 00 00 
  10590e:	66 90                	xchg   %ax,%ax

0000000000105910 <_ZN69_$LT$conquer_once..state..PoisonError$u20$as$u20$core..fmt..Debug$GT$3fmt17hd653e451986b7aa6E.llvm.3069385760615976897>:
  105910:	48 89 f7             	mov    %rsi,%rdi
  105913:	48 8d 35 86 b0 ff ff 	lea    -0x4f7a(%rip),%rsi        # 1009a0 <anon.c6e67b0d64c1d692816e5ffda0fd144d.8.llvm.3069385760615976897+0x65>
  10591a:	ba 0b 00 00 00       	mov    $0xb,%edx
  10591f:	e9 5c ea 00 00       	jmp    114380 <_ZN4core3fmt9Formatter9write_str17h8eb588591b035279E>
  105924:	66 2e 0f 1f 84 00 00 	cs nopw 0x0(%rax,%rax,1)
  10592b:	00 00 00 
  10592e:	66 90                	xchg   %ax,%ax

0000000000105930 <_ZN6x86_649registers7control6x86_6449_$LT$impl$u20$x86_64..registers..control..Cr2$GT$4read17h7d271cf9aa1e6919E>:
  105930:	0f 20 d0             	mov    %cr2,%rax
  105933:	48 89 c1             	mov    %rax,%rcx
  105936:	48 c1 e9 2f          	shr    $0x2f,%rcx
  10593a:	74 15                	je     105951 <_ZN6x86_649registers7control6x86_6449_$LT$impl$u20$x86_64..registers..control..Cr2$GT$4read17h7d271cf9aa1e6919E+0x21>
  10593c:	81 f9 ff ff 01 00    	cmp    $0x1ffff,%ecx
  105942:	74 0d                	je     105951 <_ZN6x86_649registers7control6x86_6449_$LT$impl$u20$x86_64..registers..control..Cr2$GT$4read17h7d271cf9aa1e6919E+0x21>
  105944:	83 f9 01             	cmp    $0x1,%ecx
  105947:	75 09                	jne    105952 <_ZN6x86_649registers7control6x86_6449_$LT$impl$u20$x86_64..registers..control..Cr2$GT$4read17h7d271cf9aa1e6919E+0x22>
  105949:	48 c1 e0 10          	shl    $0x10,%rax
  10594d:	48 c1 f8 10          	sar    $0x10,%rax
  105951:	c3                   	ret
  105952:	50                   	push   %rax
  105953:	48 89 04 24          	mov    %rax,(%rsp)
  105957:	48 8d 3d a9 b0 ff ff 	lea    -0x4f57(%rip),%rdi        # 100a07 <anon.c6e67b0d64c1d692816e5ffda0fd144d.8.llvm.3069385760615976897+0xcc>
  10595e:	48 8d 0d 1b 2c 01 00 	lea    0x12c1b(%rip),%rcx        # 118580 <anon.c6e67b0d64c1d692816e5ffda0fd144d.9.llvm.3069385760615976897+0x18>
  105965:	4c 8d 05 34 2c 01 00 	lea    0x12c34(%rip),%r8        # 1185a0 <anon.c6e67b0d64c1d692816e5ffda0fd144d.9.llvm.3069385760615976897+0x38>
  10596c:	48 89 e2             	mov    %rsp,%rdx
  10596f:	be 4a 00 00 00       	mov    $0x4a,%esi
  105974:	e8 e7 13 01 00       	call   116d60 <_ZN4core6result13unwrap_failed17hf6308fed240e4aa6E>
  105979:	0f 1f 80 00 00 00 00 	nopl   0x0(%rax)

0000000000105980 <_ZN80_$LT$x86_64..structures..idt..PageFaultErrorCode$u20$as$u20$core..fmt..Debug$GT$3fmt17h5109c468c6d985beE>:
  105980:	50                   	push   %rax
  105981:	48 89 f0             	mov    %rsi,%rax
  105984:	48 89 3c 24          	mov    %rdi,(%rsp)
  105988:	48 8d 35 c2 b0 ff ff 	lea    -0x4f3e(%rip),%rsi        # 100a51 <anon.c6e67b0d64c1d692816e5ffda0fd144d.8.llvm.3069385760615976897+0x116>
  10598f:	4c 8d 05 52 2c 01 00 	lea    0x12c52(%rip),%r8        # 1185e8 <anon.c6e67b0d64c1d692816e5ffda0fd144d.9.llvm.3069385760615976897+0x80>
  105996:	48 89 e1             	mov    %rsp,%rcx
  105999:	ba 12 00 00 00       	mov    $0x12,%edx
  10599e:	48 89 c7             	mov    %rax,%rdi
  1059a1:	e8 7a ea 00 00       	call   114420 <_ZN4core3fmt9Formatter25debug_tuple_field1_finish17h897ec6cf8f5324f1E>
  1059a6:	59                   	pop    %rcx
  1059a7:	c3                   	ret
  1059a8:	0f 1f 84 00 00 00 00 	nopl   0x0(%rax,%rax,1)
  1059af:	00 

00000000001059b0 <_ZN81_$LT$x86_64..structures..idt..InterruptStackFrame$u20$as$u20$core..fmt..Debug$GT$3fmt17ha031b59219450a40E>:
  1059b0:	e9 4b d6 00 00       	jmp    113000 <_ZN86_$LT$x86_64..structures..idt..InterruptStackFrameValue$u20$as$u20$core..fmt..Debug$GT$3fmt17h7c0b587920645257E>
  1059b5:	66 2e 0f 1f 84 00 00 	cs nopw 0x0(%rax,%rax,1)
  1059bc:	00 00 00 
  1059bf:	90                   	nop

00000000001059c0 <_ZN9nothingos6driver3pci4init17h570a526f494d5cbeE>:
  1059c0:	53                   	push   %rbx
  1059c1:	48 83 ec 20          	sub    $0x20,%rsp
  1059c5:	48 8d 1d 3c 2c 01 00 	lea    0x12c3c(%rip),%rbx        # 118608 <_ZN9nothingos6driver3pci6DRIVER17h5bdc765696e52fe8E>
  1059cc:	48 8b 03             	mov    (%rbx),%rax
  1059cf:	48 83 f8 02          	cmp    $0x2,%rax
  1059d3:	0f 84 8c 00 00 00    	je     105a65 <_ZN9nothingos6driver3pci4init17h570a526f494d5cbeE+0xa5>
  1059d9:	48 83 f8 01          	cmp    $0x1,%rax
  1059dd:	74 2a                	je     105a09 <_ZN9nothingos6driver3pci4init17h570a526f494d5cbeE+0x49>
  1059df:	48 83 f8 03          	cmp    $0x3,%rax
  1059e3:	75 73                	jne    105a58 <_ZN9nothingos6driver3pci4init17h570a526f494d5cbeE+0x98>
  1059e5:	48 8d 3d cb ae ff ff 	lea    -0x5135(%rip),%rdi        # 1008b7 <anon.c6e67b0d64c1d692816e5ffda0fd144d.0.llvm.3069385760615976897>
  1059ec:	48 8d 0d e5 2a 01 00 	lea    0x12ae5(%rip),%rcx        # 1184d8 <anon.c6e67b0d64c1d692816e5ffda0fd144d.3.llvm.3069385760615976897>
  1059f3:	4c 8d 05 fe 2a 01 00 	lea    0x12afe(%rip),%r8        # 1184f8 <anon.c6e67b0d64c1d692816e5ffda0fd144d.4.llvm.3069385760615976897>
  1059fa:	48 8d 54 24 07       	lea    0x7(%rsp),%rdx
  1059ff:	be 24 00 00 00       	mov    $0x24,%esi
  105a04:	e8 57 13 01 00       	call   116d60 <_ZN4core6result13unwrap_failed17hf6308fed240e4aa6E>
  105a09:	c6 44 24 06 01       	movb   $0x1,0x6(%rsp)
  105a0e:	48 8d 44 24 06       	lea    0x6(%rsp),%rax
  105a13:	48 89 44 24 08       	mov    %rax,0x8(%rsp)
  105a18:	48 8d 35 e9 2b 01 00 	lea    0x12be9(%rip),%rsi        # 118608 <_ZN9nothingos6driver3pci6DRIVER17h5bdc765696e52fe8E>
  105a1f:	48 8d 0d ea 2a 01 00 	lea    0x12aea(%rip),%rcx        # 118510 <anon.c6e67b0d64c1d692816e5ffda0fd144d.5.llvm.3069385760615976897>
  105a26:	48 8d 7c 24 10       	lea    0x10(%rsp),%rdi
  105a2b:	48 8d 54 24 08       	lea    0x8(%rsp),%rdx
  105a30:	e8 7b a2 00 00       	call   10fcb0 <_ZN12conquer_once4cell21OnceCell$LT$T$C$B$GT$14try_init_inner17hd4bb2413e62f929cE>
  105a35:	48 8b 44 24 10       	mov    0x10(%rsp),%rax
  105a3a:	48 83 f8 02          	cmp    $0x2,%rax
  105a3e:	74 25                	je     105a65 <_ZN9nothingos6driver3pci4init17h570a526f494d5cbeE+0xa5>
  105a40:	48 85 c0             	test   %rax,%rax
  105a43:	75 13                	jne    105a58 <_ZN9nothingos6driver3pci4init17h570a526f494d5cbeE+0x98>
  105a45:	eb 1e                	jmp    105a65 <_ZN9nothingos6driver3pci4init17h570a526f494d5cbeE+0xa5>
  105a47:	66 0f 1f 84 00 00 00 	nopw   0x0(%rax,%rax,1)
  105a4e:	00 00 
  105a50:	48 83 f8 03          	cmp    $0x3,%rax
  105a54:	74 15                	je     105a6b <_ZN9nothingos6driver3pci4init17h570a526f494d5cbeE+0xab>
  105a56:	f3 90                	pause
  105a58:	48 8b 03             	mov    (%rbx),%rax
  105a5b:	48 8d 48 ff          	lea    -0x1(%rax),%rcx
  105a5f:	48 83 f9 02          	cmp    $0x2,%rcx
  105a63:	73 eb                	jae    105a50 <_ZN9nothingos6driver3pci4init17h570a526f494d5cbeE+0x90>
  105a65:	48 83 c4 20          	add    $0x20,%rsp
  105a69:	5b                   	pop    %rbx
  105a6a:	c3                   	ret
  105a6b:	48 8d 3d 45 ae ff ff 	lea    -0x51bb(%rip),%rdi        # 1008b7 <anon.c6e67b0d64c1d692816e5ffda0fd144d.0.llvm.3069385760615976897>
  105a72:	48 8d 0d 5f 2a 01 00 	lea    0x12a5f(%rip),%rcx        # 1184d8 <anon.c6e67b0d64c1d692816e5ffda0fd144d.3.llvm.3069385760615976897>
  105a79:	4c 8d 05 e8 2a 01 00 	lea    0x12ae8(%rip),%r8        # 118568 <anon.c6e67b0d64c1d692816e5ffda0fd144d.9.llvm.3069385760615976897>
  105a80:	48 8d 54 24 07       	lea    0x7(%rsp),%rdx
  105a85:	be 24 00 00 00       	mov    $0x24,%esi
  105a8a:	e8 d1 12 01 00       	call   116d60 <_ZN4core6result13unwrap_failed17hf6308fed240e4aa6E>
  105a8f:	90                   	nop

0000000000105a90 <_ZN9nothingos9interrupt4init17h3af5292d6e6e7fccE>:
  105a90:	55                   	push   %rbp
  105a91:	41 56                	push   %r14
  105a93:	53                   	push   %rbx
  105a94:	48 83 ec 20          	sub    $0x20,%rsp
  105a98:	49 89 fe             	mov    %rdi,%r14
  105a9b:	b9 1b 00 00 00       	mov    $0x1b,%ecx
  105aa0:	0f 32                	rdmsr
  105aa2:	89 c5                	mov    %eax,%ebp
  105aa4:	89 d3                	mov    %edx,%ebx
  105aa6:	48 8b 47 60          	mov    0x60(%rdi),%rax
  105aaa:	48 8b 78 08          	mov    0x8(%rax),%rdi
  105aae:	be ff 01 00 00       	mov    $0x1ff,%esi
  105ab3:	4c 89 f2             	mov    %r14,%rdx
  105ab6:	e8 65 a4 00 00       	call   10ff20 <_ZN9nothingos6memory6paging5table14Table$LT$L$GT$17next_table_create17h07fc0c2166f3fdbfE>
  105abb:	be ff 01 00 00       	mov    $0x1ff,%esi
  105ac0:	48 89 c7             	mov    %rax,%rdi
  105ac3:	4c 89 f2             	mov    %r14,%rdx
  105ac6:	e8 55 a4 00 00       	call   10ff20 <_ZN9nothingos6memory6paging5table14Table$LT$L$GT$17next_table_create17h07fc0c2166f3fdbfE>
  105acb:	be ff 01 00 00       	mov    $0x1ff,%esi
  105ad0:	48 89 c7             	mov    %rax,%rdi
  105ad3:	4c 89 f2             	mov    %r14,%rdx
  105ad6:	e8 45 a4 00 00       	call   10ff20 <_ZN9nothingos6memory6paging5table14Table$LT$L$GT$17next_table_create17h07fc0c2166f3fdbfE>
  105adb:	48 83 b8 00 08 00 00 	cmpq   $0x0,0x800(%rax)
  105ae2:	00 
  105ae3:	0f 85 0c 01 00 00    	jne    105bf5 <_ZN9nothingos9interrupt4init17h3af5292d6e6e7fccE+0x165>
  105ae9:	48 c1 e3 20          	shl    $0x20,%rbx
  105aed:	89 e9                	mov    %ebp,%ecx
  105aef:	48 09 d9             	or     %rbx,%rcx
  105af2:	48 ba 00 f0 ff ff 0f 	movabs $0xffffff000,%rdx
  105af9:	00 00 00 
  105afc:	48 21 ca             	and    %rcx,%rdx
  105aff:	48 83 ca 1b          	or     $0x1b,%rdx
  105b03:	48 89 90 00 08 00 00 	mov    %rdx,0x800(%rax)
  105b0a:	48 8d 1d 07 2b 01 00 	lea    0x12b07(%rip),%rbx        # 118618 <_ZN9nothingos9interrupt6LAPICS17h0361f45f0af18b28E>
  105b11:	48 8b 83 f0 02 00 00 	mov    0x2f0(%rbx),%rax
  105b18:	48 83 f8 02          	cmp    $0x2,%rax
  105b1c:	0f 84 87 00 00 00    	je     105ba9 <_ZN9nothingos9interrupt4init17h3af5292d6e6e7fccE+0x119>
  105b22:	48 83 f8 01          	cmp    $0x1,%rax
  105b26:	74 2a                	je     105b52 <_ZN9nothingos9interrupt4init17h3af5292d6e6e7fccE+0xc2>
  105b28:	48 83 f8 03          	cmp    $0x3,%rax
  105b2c:	75 6a                	jne    105b98 <_ZN9nothingos9interrupt4init17h3af5292d6e6e7fccE+0x108>
  105b2e:	48 8d 3d 82 ad ff ff 	lea    -0x527e(%rip),%rdi        # 1008b7 <anon.c6e67b0d64c1d692816e5ffda0fd144d.0.llvm.3069385760615976897>
  105b35:	48 8d 0d 9c 29 01 00 	lea    0x1299c(%rip),%rcx        # 1184d8 <anon.c6e67b0d64c1d692816e5ffda0fd144d.3.llvm.3069385760615976897>
  105b3c:	4c 8d 05 b5 29 01 00 	lea    0x129b5(%rip),%r8        # 1184f8 <anon.c6e67b0d64c1d692816e5ffda0fd144d.4.llvm.3069385760615976897>
  105b43:	48 8d 54 24 07       	lea    0x7(%rsp),%rdx
  105b48:	be 24 00 00 00       	mov    $0x24,%esi
  105b4d:	e8 0e 12 01 00       	call   116d60 <_ZN4core6result13unwrap_failed17hf6308fed240e4aa6E>
  105b52:	c6 44 24 06 01       	movb   $0x1,0x6(%rsp)
  105b57:	48 8d 44 24 06       	lea    0x6(%rsp),%rax
  105b5c:	48 89 44 24 08       	mov    %rax,0x8(%rsp)
  105b61:	48 8d 35 b0 2a 01 00 	lea    0x12ab0(%rip),%rsi        # 118618 <_ZN9nothingos9interrupt6LAPICS17h0361f45f0af18b28E>
  105b68:	48 8d 0d 41 29 01 00 	lea    0x12941(%rip),%rcx        # 1184b0 <anon.c6e67b0d64c1d692816e5ffda0fd144d.2.llvm.3069385760615976897>
  105b6f:	48 8d 7c 24 10       	lea    0x10(%rsp),%rdi
  105b74:	48 8d 54 24 08       	lea    0x8(%rsp),%rdx
  105b79:	e8 f2 9e 00 00       	call   10fa70 <_ZN12conquer_once4cell21OnceCell$LT$T$C$B$GT$14try_init_inner17h20fa168eb776c930E>
  105b7e:	48 8b 44 24 10       	mov    0x10(%rsp),%rax
  105b83:	48 83 f8 02          	cmp    $0x2,%rax
  105b87:	74 20                	je     105ba9 <_ZN9nothingos9interrupt4init17h3af5292d6e6e7fccE+0x119>
  105b89:	48 85 c0             	test   %rax,%rax
  105b8c:	75 0a                	jne    105b98 <_ZN9nothingos9interrupt4init17h3af5292d6e6e7fccE+0x108>
  105b8e:	eb 19                	jmp    105ba9 <_ZN9nothingos9interrupt4init17h3af5292d6e6e7fccE+0x119>
  105b90:	48 83 f8 03          	cmp    $0x3,%rax
  105b94:	74 3b                	je     105bd1 <_ZN9nothingos9interrupt4init17h3af5292d6e6e7fccE+0x141>
  105b96:	f3 90                	pause
  105b98:	48 8b 83 f0 02 00 00 	mov    0x2f0(%rbx),%rax
  105b9f:	48 8d 48 ff          	lea    -0x1(%rax),%rcx
  105ba3:	48 83 f9 02          	cmp    $0x2,%rcx
  105ba7:	73 e7                	jae    105b90 <_ZN9nothingos9interrupt4init17h3af5292d6e6e7fccE+0x100>
  105ba9:	48 8d 3d 70 64 01 00 	lea    0x16470(%rip),%rdi        # 11c020 <_ZN69_$LT$nothingos..interrupt..IDT$u20$as$u20$core..ops..deref..Deref$GT$5deref11__stability4LAZY17hb9ae9ce1149b8245E.llvm.3069385760615976897>
  105bb0:	e8 2b 7c 00 00       	call   10d7e0 <_ZN4spin4once13Once$LT$T$GT$9call_once17h9dfe5c1287063116E>
  105bb5:	48 8d 5c 24 10       	lea    0x10(%rsp),%rbx
  105bba:	48 89 df             	mov    %rbx,%rdi
  105bbd:	48 89 c6             	mov    %rax,%rsi
  105bc0:	e8 db d3 00 00       	call   112fa0 <_ZN6x86_6410structures3idt24InterruptDescriptorTable7pointer17h7a6862cccfb307d4E>
  105bc5:	0f 01 1b             	lidt   (%rbx)
  105bc8:	48 83 c4 20          	add    $0x20,%rsp
  105bcc:	5b                   	pop    %rbx
  105bcd:	41 5e                	pop    %r14
  105bcf:	5d                   	pop    %rbp
  105bd0:	c3                   	ret
  105bd1:	48 8d 3d df ac ff ff 	lea    -0x5321(%rip),%rdi        # 1008b7 <anon.c6e67b0d64c1d692816e5ffda0fd144d.0.llvm.3069385760615976897>
  105bd8:	48 8d 0d f9 28 01 00 	lea    0x128f9(%rip),%rcx        # 1184d8 <anon.c6e67b0d64c1d692816e5ffda0fd144d.3.llvm.3069385760615976897>
  105bdf:	4c 8d 05 82 29 01 00 	lea    0x12982(%rip),%r8        # 118568 <anon.c6e67b0d64c1d692816e5ffda0fd144d.9.llvm.3069385760615976897>
  105be6:	48 8d 54 24 07       	lea    0x7(%rsp),%rdx
  105beb:	be 24 00 00 00       	mov    $0x24,%esi
  105bf0:	e8 6b 11 01 00       	call   116d60 <_ZN4core6result13unwrap_failed17hf6308fed240e4aa6E>
  105bf5:	48 8d 3d 21 c4 ff ff 	lea    -0x3bdf(%rip),%rdi        # 10201d <anon.cb8a34ead4db84e4803dab2fb001b654.34.llvm.7859662472787091371>
  105bfc:	48 8d 15 2d 50 01 00 	lea    0x1502d(%rip),%rdx        # 11ac30 <anon.cb8a34ead4db84e4803dab2fb001b654.35.llvm.7859662472787091371>
  105c03:	be 31 00 00 00       	mov    $0x31,%esi
  105c08:	e8 b3 f8 00 00       	call   1154c0 <_ZN4core9panicking5panic17ha6ab4147e8d76f59E>
  105c0d:	0f 1f 00             	nopl   (%rax)

0000000000105c10 <_ZN9nothingos9interrupt32general_protection_fault_handler17h63dd0e0aa34ee1c9E>:
  105c10:	50                   	push   %rax
  105c11:	41 53                	push   %r11
  105c13:	41 52                	push   %r10
  105c15:	41 51                	push   %r9
  105c17:	41 50                	push   %r8
  105c19:	57                   	push   %rdi
  105c1a:	56                   	push   %rsi
  105c1b:	52                   	push   %rdx
  105c1c:	51                   	push   %rcx
  105c1d:	50                   	push   %rax
  105c1e:	48 81 ec c8 00 00 00 	sub    $0xc8,%rsp
  105c25:	fc                   	cld
  105c26:	48 8d 84 24 20 01 00 	lea    0x120(%rsp),%rax
  105c2d:	00 
  105c2e:	48 89 44 24 08       	mov    %rax,0x8(%rsp)
  105c33:	48 8d 05 76 fd ff ff 	lea    -0x28a(%rip),%rax        # 1059b0 <_ZN81_$LT$x86_64..structures..idt..InterruptStackFrame$u20$as$u20$core..fmt..Debug$GT$3fmt17ha031b59219450a40E>
  105c3a:	48 89 44 24 10       	mov    %rax,0x10(%rsp)
  105c3f:	48 8d 84 24 18 01 00 	lea    0x118(%rsp),%rax
  105c46:	00 
  105c47:	48 89 44 24 18       	mov    %rax,0x18(%rsp)
  105c4c:	48 8d 05 dd ff 00 00 	lea    0xffdd(%rip),%rax        # 115c30 <_ZN4core3fmt3num3imp52_$LT$impl$u20$core..fmt..Display$u20$for$u20$u64$GT$3fmt17he51a3038dcc11c91E>
  105c53:	48 89 44 24 20       	mov    %rax,0x20(%rsp)
  105c58:	48 c7 44 24 58 02 00 	movq   $0x2,0x58(%rsp)
  105c5f:	00 00 
  105c61:	48 c7 44 24 68 02 00 	movq   $0x2,0x68(%rsp)
  105c68:	00 00 
  105c6a:	48 c7 44 24 78 00 00 	movq   $0x0,0x78(%rsp)
  105c71:	00 00 
  105c73:	48 b8 20 00 00 00 04 	movabs $0x400000020,%rax
  105c7a:	00 00 00 
  105c7d:	48 89 84 24 80 00 00 	mov    %rax,0x80(%rsp)
  105c84:	00 
  105c85:	c6 84 24 88 00 00 00 	movb   $0x3,0x88(%rsp)
  105c8c:	03 
  105c8d:	48 c7 84 24 90 00 00 	movq   $0x2,0x90(%rsp)
  105c94:	00 02 00 00 00 
  105c99:	48 c7 84 24 a0 00 00 	movq   $0x2,0xa0(%rsp)
  105ca0:	00 02 00 00 00 
  105ca5:	48 c7 84 24 b0 00 00 	movq   $0x1,0xb0(%rsp)
  105cac:	00 01 00 00 00 
  105cb1:	48 c7 84 24 b8 00 00 	movq   $0x20,0xb8(%rsp)
  105cb8:	00 20 00 00 00 
  105cbd:	c6 84 24 c0 00 00 00 	movb   $0x3,0xc0(%rsp)
  105cc4:	03 
  105cc5:	48 8d 05 7c 2c 01 00 	lea    0x12c7c(%rip),%rax        # 118948 <_ZN9nothingos9interrupt6LAPICS17h0361f45f0af18b28E+0x330>
  105ccc:	48 89 44 24 28       	mov    %rax,0x28(%rsp)
  105cd1:	48 c7 44 24 30 02 00 	movq   $0x2,0x30(%rsp)
  105cd8:	00 00 
  105cda:	48 8d 44 24 58       	lea    0x58(%rsp),%rax
  105cdf:	48 89 44 24 48       	mov    %rax,0x48(%rsp)
  105ce4:	48 c7 44 24 50 02 00 	movq   $0x2,0x50(%rsp)
  105ceb:	00 00 
  105ced:	48 8d 44 24 08       	lea    0x8(%rsp),%rax
  105cf2:	48 89 44 24 38       	mov    %rax,0x38(%rsp)
  105cf7:	48 c7 44 24 40 02 00 	movq   $0x2,0x40(%rsp)
  105cfe:	00 00 
  105d00:	48 8d 35 61 2c 01 00 	lea    0x12c61(%rip),%rsi        # 118968 <_ZN9nothingos9interrupt6LAPICS17h0361f45f0af18b28E+0x350>
  105d07:	48 8d 7c 24 28       	lea    0x28(%rsp),%rdi
  105d0c:	e8 ef f6 00 00       	call   115400 <_ZN4core9panicking9panic_fmt17h625e3df7341abadfE>
  105d11:	66 2e 0f 1f 84 00 00 	cs nopw 0x0(%rax,%rax,1)
  105d18:	00 00 00 
  105d1b:	0f 1f 44 00 00       	nopl   0x0(%rax,%rax,1)

0000000000105d20 <_ZN9nothingos9interrupt14divide_handler17hae85e33437d77812E>:
  105d20:	41 53                	push   %r11
  105d22:	41 52                	push   %r10
  105d24:	41 51                	push   %r9
  105d26:	41 50                	push   %r8
  105d28:	57                   	push   %rdi
  105d29:	56                   	push   %rsi
  105d2a:	52                   	push   %rdx
  105d2b:	51                   	push   %rcx
  105d2c:	50                   	push   %rax
  105d2d:	48 81 ec 80 00 00 00 	sub    $0x80,%rsp
  105d34:	fc                   	cld
  105d35:	48 8d 84 24 c8 00 00 	lea    0xc8(%rsp),%rax
  105d3c:	00 
  105d3d:	48 89 44 24 08       	mov    %rax,0x8(%rsp)
  105d42:	48 8d 05 67 fc ff ff 	lea    -0x399(%rip),%rax        # 1059b0 <_ZN81_$LT$x86_64..structures..idt..InterruptStackFrame$u20$as$u20$core..fmt..Debug$GT$3fmt17ha031b59219450a40E>
  105d49:	48 89 44 24 10       	mov    %rax,0x10(%rsp)
  105d4e:	48 c7 44 24 48 02 00 	movq   $0x2,0x48(%rsp)
  105d55:	00 00 
  105d57:	48 c7 44 24 58 02 00 	movq   $0x2,0x58(%rsp)
  105d5e:	00 00 
  105d60:	48 c7 44 24 68 00 00 	movq   $0x0,0x68(%rsp)
  105d67:	00 00 
  105d69:	48 b8 20 00 00 00 04 	movabs $0x400000020,%rax
  105d70:	00 00 00 
  105d73:	48 89 44 24 70       	mov    %rax,0x70(%rsp)
  105d78:	c6 44 24 78 03       	movb   $0x3,0x78(%rsp)
  105d7d:	48 8d 05 fc 2b 01 00 	lea    0x12bfc(%rip),%rax        # 118980 <_ZN9nothingos9interrupt6LAPICS17h0361f45f0af18b28E+0x368>
  105d84:	48 89 44 24 18       	mov    %rax,0x18(%rsp)
  105d89:	48 c7 44 24 20 02 00 	movq   $0x2,0x20(%rsp)
  105d90:	00 00 
  105d92:	48 8d 44 24 48       	lea    0x48(%rsp),%rax
  105d97:	48 89 44 24 38       	mov    %rax,0x38(%rsp)
  105d9c:	48 c7 44 24 40 01 00 	movq   $0x1,0x40(%rsp)
  105da3:	00 00 
  105da5:	48 8d 44 24 08       	lea    0x8(%rsp),%rax
  105daa:	48 89 44 24 28       	mov    %rax,0x28(%rsp)
  105daf:	48 c7 44 24 30 01 00 	movq   $0x1,0x30(%rsp)
  105db6:	00 00 
  105db8:	9c                   	pushf
  105db9:	58                   	pop    %rax
  105dba:	a9 00 02 00 00       	test   $0x200,%eax
  105dbf:	75 0c                	jne    105dcd <_ZN9nothingos9interrupt14divide_handler17hae85e33437d77812E+0xad>
  105dc1:	48 8d 7c 24 18       	lea    0x18(%rsp),%rdi
  105dc6:	e8 05 13 00 00       	call   1070d0 <_ZN9nothingos5print6_print28_$u7b$$u7b$closure$u7d$$u7d$17h775a3a8e0eec56baE.llvm.2016506120432514712>
  105dcb:	eb 0c                	jmp    105dd9 <_ZN9nothingos9interrupt14divide_handler17hae85e33437d77812E+0xb9>
  105dcd:	fa                   	cli
  105dce:	48 8d 7c 24 18       	lea    0x18(%rsp),%rdi
  105dd3:	e8 f8 12 00 00       	call   1070d0 <_ZN9nothingos5print6_print28_$u7b$$u7b$closure$u7d$$u7d$17h775a3a8e0eec56baE.llvm.2016506120432514712>
  105dd8:	fb                   	sti
  105dd9:	48 81 c4 80 00 00 00 	add    $0x80,%rsp
  105de0:	58                   	pop    %rax
  105de1:	59                   	pop    %rcx
  105de2:	5a                   	pop    %rdx
  105de3:	5e                   	pop    %rsi
  105de4:	5f                   	pop    %rdi
  105de5:	41 58                	pop    %r8
  105de7:	41 59                	pop    %r9
  105de9:	41 5a                	pop    %r10
  105deb:	41 5b                	pop    %r11
  105ded:	48 cf                	iretq
  105def:	90                   	nop

0000000000105df0 <_ZN9nothingos9interrupt16overflow_handler17h2148ece3bddfc1b8E>:
  105df0:	41 53                	push   %r11
  105df2:	41 52                	push   %r10
  105df4:	41 51                	push   %r9
  105df6:	41 50                	push   %r8
  105df8:	57                   	push   %rdi
  105df9:	56                   	push   %rsi
  105dfa:	52                   	push   %rdx
  105dfb:	51                   	push   %rcx
  105dfc:	50                   	push   %rax
  105dfd:	48 81 ec 80 00 00 00 	sub    $0x80,%rsp
  105e04:	fc                   	cld
  105e05:	48 8d 84 24 c8 00 00 	lea    0xc8(%rsp),%rax
  105e0c:	00 
  105e0d:	48 89 44 24 08       	mov    %rax,0x8(%rsp)
  105e12:	48 8d 05 97 fb ff ff 	lea    -0x469(%rip),%rax        # 1059b0 <_ZN81_$LT$x86_64..structures..idt..InterruptStackFrame$u20$as$u20$core..fmt..Debug$GT$3fmt17ha031b59219450a40E>
  105e19:	48 89 44 24 10       	mov    %rax,0x10(%rsp)
  105e1e:	48 c7 44 24 48 02 00 	movq   $0x2,0x48(%rsp)
  105e25:	00 00 
  105e27:	48 c7 44 24 58 02 00 	movq   $0x2,0x58(%rsp)
  105e2e:	00 00 
  105e30:	48 c7 44 24 68 00 00 	movq   $0x0,0x68(%rsp)
  105e37:	00 00 
  105e39:	48 b8 20 00 00 00 04 	movabs $0x400000020,%rax
  105e40:	00 00 00 
  105e43:	48 89 44 24 70       	mov    %rax,0x70(%rsp)
  105e48:	c6 44 24 78 03       	movb   $0x3,0x78(%rsp)
  105e4d:	48 8d 05 4c 2b 01 00 	lea    0x12b4c(%rip),%rax        # 1189a0 <_ZN9nothingos9interrupt6LAPICS17h0361f45f0af18b28E+0x388>
  105e54:	48 89 44 24 18       	mov    %rax,0x18(%rsp)
  105e59:	48 c7 44 24 20 02 00 	movq   $0x2,0x20(%rsp)
  105e60:	00 00 
  105e62:	48 8d 44 24 48       	lea    0x48(%rsp),%rax
  105e67:	48 89 44 24 38       	mov    %rax,0x38(%rsp)
  105e6c:	48 c7 44 24 40 01 00 	movq   $0x1,0x40(%rsp)
  105e73:	00 00 
  105e75:	48 8d 44 24 08       	lea    0x8(%rsp),%rax
  105e7a:	48 89 44 24 28       	mov    %rax,0x28(%rsp)
  105e7f:	48 c7 44 24 30 01 00 	movq   $0x1,0x30(%rsp)
  105e86:	00 00 
  105e88:	9c                   	pushf
  105e89:	58                   	pop    %rax
  105e8a:	a9 00 02 00 00       	test   $0x200,%eax
  105e8f:	75 0c                	jne    105e9d <_ZN9nothingos9interrupt16overflow_handler17h2148ece3bddfc1b8E+0xad>
  105e91:	48 8d 7c 24 18       	lea    0x18(%rsp),%rdi
  105e96:	e8 35 12 00 00       	call   1070d0 <_ZN9nothingos5print6_print28_$u7b$$u7b$closure$u7d$$u7d$17h775a3a8e0eec56baE.llvm.2016506120432514712>
  105e9b:	eb 0c                	jmp    105ea9 <_ZN9nothingos9interrupt16overflow_handler17h2148ece3bddfc1b8E+0xb9>
  105e9d:	fa                   	cli
  105e9e:	48 8d 7c 24 18       	lea    0x18(%rsp),%rdi
  105ea3:	e8 28 12 00 00       	call   1070d0 <_ZN9nothingos5print6_print28_$u7b$$u7b$closure$u7d$$u7d$17h775a3a8e0eec56baE.llvm.2016506120432514712>
  105ea8:	fb                   	sti
  105ea9:	48 81 c4 80 00 00 00 	add    $0x80,%rsp
  105eb0:	58                   	pop    %rax
  105eb1:	59                   	pop    %rcx
  105eb2:	5a                   	pop    %rdx
  105eb3:	5e                   	pop    %rsi
  105eb4:	5f                   	pop    %rdi
  105eb5:	41 58                	pop    %r8
  105eb7:	41 59                	pop    %r9
  105eb9:	41 5a                	pop    %r10
  105ebb:	41 5b                	pop    %r11
  105ebd:	48 cf                	iretq
  105ebf:	90                   	nop

0000000000105ec0 <_ZN9nothingos9interrupt17breakpoint_handle17h12e4526ba1e79f19E>:
  105ec0:	41 53                	push   %r11
  105ec2:	41 52                	push   %r10
  105ec4:	41 51                	push   %r9
  105ec6:	41 50                	push   %r8
  105ec8:	57                   	push   %rdi
  105ec9:	56                   	push   %rsi
  105eca:	52                   	push   %rdx
  105ecb:	51                   	push   %rcx
  105ecc:	50                   	push   %rax
  105ecd:	48 83 ec 30          	sub    $0x30,%rsp
  105ed1:	fc                   	cld
  105ed2:	48 8d 05 e7 2a 01 00 	lea    0x12ae7(%rip),%rax        # 1189c0 <_ZN9nothingos9interrupt6LAPICS17h0361f45f0af18b28E+0x3a8>
  105ed9:	48 89 04 24          	mov    %rax,(%rsp)
  105edd:	48 c7 44 24 08 01 00 	movq   $0x1,0x8(%rsp)
  105ee4:	00 00 
  105ee6:	48 c7 44 24 20 00 00 	movq   $0x0,0x20(%rsp)
  105eed:	00 00 
  105eef:	48 8d 05 ea ac ff ff 	lea    -0x5316(%rip),%rax        # 100be0 <anon.8c1f9e3e01bb449180f846e83e39022c.3.llvm.13945740865824956965>
  105ef6:	48 89 44 24 10       	mov    %rax,0x10(%rsp)
  105efb:	48 c7 44 24 18 00 00 	movq   $0x0,0x18(%rsp)
  105f02:	00 00 
  105f04:	48 89 e7             	mov    %rsp,%rdi
  105f07:	e8 b4 06 00 00       	call   1065c0 <_ZN9nothingos6serial6_print17heaf67e8bbc7364c4E>
  105f0c:	48 83 c4 30          	add    $0x30,%rsp
  105f10:	58                   	pop    %rax
  105f11:	59                   	pop    %rcx
  105f12:	5a                   	pop    %rdx
  105f13:	5e                   	pop    %rsi
  105f14:	5f                   	pop    %rdi
  105f15:	41 58                	pop    %r8
  105f17:	41 59                	pop    %r9
  105f19:	41 5a                	pop    %r10
  105f1b:	41 5b                	pop    %r11
  105f1d:	48 cf                	iretq
  105f1f:	90                   	nop

0000000000105f20 <_ZN9nothingos9interrupt20double_fault_handler17hfc4e6845ebe116c1E>:
  105f20:	50                   	push   %rax
  105f21:	41 53                	push   %r11
  105f23:	41 52                	push   %r10
  105f25:	41 51                	push   %r9
  105f27:	41 50                	push   %r8
  105f29:	57                   	push   %rdi
  105f2a:	56                   	push   %rsi
  105f2b:	52                   	push   %rdx
  105f2c:	51                   	push   %rcx
  105f2d:	50                   	push   %rax
  105f2e:	48 81 ec 88 00 00 00 	sub    $0x88,%rsp
  105f35:	fc                   	cld
  105f36:	48 8d 84 24 e0 00 00 	lea    0xe0(%rsp),%rax
  105f3d:	00 
  105f3e:	48 89 44 24 10       	mov    %rax,0x10(%rsp)
  105f43:	48 8d 05 66 fa ff ff 	lea    -0x59a(%rip),%rax        # 1059b0 <_ZN81_$LT$x86_64..structures..idt..InterruptStackFrame$u20$as$u20$core..fmt..Debug$GT$3fmt17ha031b59219450a40E>
  105f4a:	48 89 44 24 18       	mov    %rax,0x18(%rsp)
  105f4f:	48 c7 44 24 50 02 00 	movq   $0x2,0x50(%rsp)
  105f56:	00 00 
  105f58:	48 c7 44 24 60 02 00 	movq   $0x2,0x60(%rsp)
  105f5f:	00 00 
  105f61:	48 c7 44 24 70 00 00 	movq   $0x0,0x70(%rsp)
  105f68:	00 00 
  105f6a:	48 b8 20 00 00 00 04 	movabs $0x400000020,%rax
  105f71:	00 00 00 
  105f74:	48 89 44 24 78       	mov    %rax,0x78(%rsp)
  105f79:	c6 84 24 80 00 00 00 	movb   $0x3,0x80(%rsp)
  105f80:	03 
  105f81:	48 8d 05 48 2a 01 00 	lea    0x12a48(%rip),%rax        # 1189d0 <_ZN9nothingos9interrupt6LAPICS17h0361f45f0af18b28E+0x3b8>
  105f88:	48 89 44 24 20       	mov    %rax,0x20(%rsp)
  105f8d:	48 c7 44 24 28 01 00 	movq   $0x1,0x28(%rsp)
  105f94:	00 00 
  105f96:	48 8d 44 24 50       	lea    0x50(%rsp),%rax
  105f9b:	48 89 44 24 40       	mov    %rax,0x40(%rsp)
  105fa0:	48 c7 44 24 48 01 00 	movq   $0x1,0x48(%rsp)
  105fa7:	00 00 
  105fa9:	48 8d 44 24 10       	lea    0x10(%rsp),%rax
  105fae:	48 89 44 24 30       	mov    %rax,0x30(%rsp)
  105fb3:	48 c7 44 24 38 01 00 	movq   $0x1,0x38(%rsp)
  105fba:	00 00 
  105fbc:	48 8d 35 1d 2a 01 00 	lea    0x12a1d(%rip),%rsi        # 1189e0 <_ZN9nothingos9interrupt6LAPICS17h0361f45f0af18b28E+0x3c8>
  105fc3:	48 8d 7c 24 20       	lea    0x20(%rsp),%rdi
  105fc8:	e8 33 f4 00 00       	call   115400 <_ZN4core9panicking9panic_fmt17h625e3df7341abadfE>
  105fcd:	0f 1f 00             	nopl   (%rax)

0000000000105fd0 <_ZN9nothingos9interrupt23timer_interrupt_handler17h7a666f83e0e73d37E>:
  105fd0:	41 53                	push   %r11
  105fd2:	41 52                	push   %r10
  105fd4:	41 51                	push   %r9
  105fd6:	41 50                	push   %r8
  105fd8:	57                   	push   %rdi
  105fd9:	56                   	push   %rsi
  105fda:	52                   	push   %rdx
  105fdb:	51                   	push   %rcx
  105fdc:	53                   	push   %rbx
  105fdd:	50                   	push   %rax
  105fde:	50                   	push   %rax
  105fdf:	fc                   	cld
  105fe0:	f0 48 ff 05 70 70 01 	lock incq 0x17070(%rip)        # 11d058 <_ZN9nothingos6driver5timer5TICKS17h4a1d4e253c45dbc8E.llvm.13945740865824956965>
  105fe7:	00 
  105fe8:	48 8d 3d 71 70 01 00 	lea    0x17071(%rip),%rdi        # 11d060 <_ZN9nothingos6driver5timer5WAKER17h8489a34b50f44a2bE.llvm.13945740865824956965>
  105fef:	e8 8c cd 00 00       	call   112d80 <_ZN12futures_core4task10__internal12atomic_waker11AtomicWaker4take17h22e0d7f24f32989fE>
  105ff4:	48 85 c0             	test   %rax,%rax
  105ff7:	74 0b                	je     106004 <_ZN9nothingos9interrupt23timer_interrupt_handler17h7a666f83e0e73d37E+0x34>
  105ff9:	48 89 c7             	mov    %rax,%rdi
  105ffc:	48 89 d6             	mov    %rdx,%rsi
  105fff:	e8 cc 2f 00 00       	call   108fd0 <_ZN9nothingos4task17interrupt_wakeups14interrupt_wake17h267fce5335c57dcfE>
  106004:	48 8d 1d 0d 26 01 00 	lea    0x1260d(%rip),%rbx        # 118618 <_ZN9nothingos9interrupt6LAPICS17h0361f45f0af18b28E>
  10600b:	48 8b 83 f0 02 00 00 	mov    0x2f0(%rbx),%rax
  106012:	48 83 f8 02          	cmp    $0x2,%rax
  106016:	74 42                	je     10605a <_ZN9nothingos9interrupt23timer_interrupt_handler17h7a666f83e0e73d37E+0x8a>
  106018:	48 83 f8 01          	cmp    $0x1,%rax
  10601c:	0f 84 9d 00 00 00    	je     1060bf <_ZN9nothingos9interrupt23timer_interrupt_handler17h7a666f83e0e73d37E+0xef>
  106022:	48 83 f8 03          	cmp    $0x3,%rax
  106026:	0f 84 9f 00 00 00    	je     1060cb <_ZN9nothingos9interrupt23timer_interrupt_handler17h7a666f83e0e73d37E+0xfb>
  10602c:	0f 1f 40 00          	nopl   0x0(%rax)
  106030:	48 8b 83 f0 02 00 00 	mov    0x2f0(%rbx),%rax
  106037:	48 8d 48 ff          	lea    -0x1(%rax),%rcx
  10603b:	48 83 f9 02          	cmp    $0x2,%rcx
  10603f:	72 19                	jb     10605a <_ZN9nothingos9interrupt23timer_interrupt_handler17h7a666f83e0e73d37E+0x8a>
  106041:	48 83 f8 03          	cmp    $0x3,%rax
  106045:	74 54                	je     10609b <_ZN9nothingos9interrupt23timer_interrupt_handler17h7a666f83e0e73d37E+0xcb>
  106047:	f3 90                	pause
  106049:	48 8b 83 f0 02 00 00 	mov    0x2f0(%rbx),%rax
  106050:	48 8d 48 ff          	lea    -0x1(%rax),%rcx
  106054:	48 83 f9 02          	cmp    $0x2,%rcx
  106058:	73 e7                	jae    106041 <_ZN9nothingos9interrupt23timer_interrupt_handler17h7a666f83e0e73d37E+0x71>
  10605a:	b1 01                	mov    $0x1,%cl
  10605c:	0f 1f 40 00          	nopl   0x0(%rax)
  106060:	31 c0                	xor    %eax,%eax
  106062:	f0 0f b0 0b          	lock cmpxchg %cl,(%rbx)
  106066:	75 0a                	jne    106072 <_ZN9nothingos9interrupt23timer_interrupt_handler17h7a666f83e0e73d37E+0xa2>
  106068:	eb 11                	jmp    10607b <_ZN9nothingos9interrupt23timer_interrupt_handler17h7a666f83e0e73d37E+0xab>
  10606a:	66 0f 1f 44 00 00    	nopw   0x0(%rax,%rax,1)
  106070:	f3 90                	pause
  106072:	0f b6 03             	movzbl (%rbx),%eax
  106075:	84 c0                	test   %al,%al
  106077:	75 f7                	jne    106070 <_ZN9nothingos9interrupt23timer_interrupt_handler17h7a666f83e0e73d37E+0xa0>
  106079:	eb e5                	jmp    106060 <_ZN9nothingos9interrupt23timer_interrupt_handler17h7a666f83e0e73d37E+0x90>
  10607b:	48 8d 7b 08          	lea    0x8(%rbx),%rdi
  10607f:	e8 2c b3 00 00       	call   1113b0 <_ZN6x2apic5lapic9LocalApic16end_of_interrupt17h1d3e41bdca600fc3E>
  106084:	c6 03 00             	movb   $0x0,(%rbx)
  106087:	48 83 c4 08          	add    $0x8,%rsp
  10608b:	58                   	pop    %rax
  10608c:	5b                   	pop    %rbx
  10608d:	59                   	pop    %rcx
  10608e:	5a                   	pop    %rdx
  10608f:	5e                   	pop    %rsi
  106090:	5f                   	pop    %rdi
  106091:	41 58                	pop    %r8
  106093:	41 59                	pop    %r9
  106095:	41 5a                	pop    %r10
  106097:	41 5b                	pop    %r11
  106099:	48 cf                	iretq
  10609b:	48 8d 3d 15 a8 ff ff 	lea    -0x57eb(%rip),%rdi        # 1008b7 <anon.c6e67b0d64c1d692816e5ffda0fd144d.0.llvm.3069385760615976897>
  1060a2:	48 8d 0d 2f 24 01 00 	lea    0x1242f(%rip),%rcx        # 1184d8 <anon.c6e67b0d64c1d692816e5ffda0fd144d.3.llvm.3069385760615976897>
  1060a9:	4c 8d 05 b8 24 01 00 	lea    0x124b8(%rip),%r8        # 118568 <anon.c6e67b0d64c1d692816e5ffda0fd144d.9.llvm.3069385760615976897>
  1060b0:	48 8d 54 24 07       	lea    0x7(%rsp),%rdx
  1060b5:	be 24 00 00 00       	mov    $0x24,%esi
  1060ba:	e8 a1 0c 01 00       	call   116d60 <_ZN4core6result13unwrap_failed17hf6308fed240e4aa6E>
  1060bf:	48 8d 3d 32 29 01 00 	lea    0x12932(%rip),%rdi        # 1189f8 <_ZN9nothingos9interrupt6LAPICS17h0361f45f0af18b28E+0x3e0>
  1060c6:	e8 05 0c 01 00       	call   116cd0 <_ZN4core6option13unwrap_failed17he52d730686d7539bE>
  1060cb:	48 8d 3d e5 a7 ff ff 	lea    -0x581b(%rip),%rdi        # 1008b7 <anon.c6e67b0d64c1d692816e5ffda0fd144d.0.llvm.3069385760615976897>
  1060d2:	48 8d 0d ff 23 01 00 	lea    0x123ff(%rip),%rcx        # 1184d8 <anon.c6e67b0d64c1d692816e5ffda0fd144d.3.llvm.3069385760615976897>
  1060d9:	4c 8d 05 70 24 01 00 	lea    0x12470(%rip),%r8        # 118550 <anon.c6e67b0d64c1d692816e5ffda0fd144d.5.llvm.3069385760615976897+0x40>
  1060e0:	48 8d 54 24 07       	lea    0x7(%rsp),%rdx
  1060e5:	be 24 00 00 00       	mov    $0x24,%esi
  1060ea:	e8 71 0c 01 00       	call   116d60 <_ZN4core6result13unwrap_failed17hf6308fed240e4aa6E>
  1060ef:	90                   	nop

00000000001060f0 <_ZN9nothingos9interrupt26keyboard_interrupt_handler17hc57384502e03c71eE>:
  1060f0:	41 53                	push   %r11
  1060f2:	41 52                	push   %r10
  1060f4:	41 51                	push   %r9
  1060f6:	41 50                	push   %r8
  1060f8:	57                   	push   %rdi
  1060f9:	56                   	push   %rsi
  1060fa:	52                   	push   %rdx
  1060fb:	51                   	push   %rcx
  1060fc:	53                   	push   %rbx
  1060fd:	50                   	push   %rax
  1060fe:	50                   	push   %rax
  1060ff:	fc                   	cld
  106100:	48 8d 1d 11 25 01 00 	lea    0x12511(%rip),%rbx        # 118618 <_ZN9nothingos9interrupt6LAPICS17h0361f45f0af18b28E>
  106107:	48 8b 83 f0 02 00 00 	mov    0x2f0(%rbx),%rax
  10610e:	48 83 f8 02          	cmp    $0x2,%rax
  106112:	74 46                	je     10615a <_ZN9nothingos9interrupt26keyboard_interrupt_handler17hc57384502e03c71eE+0x6a>
  106114:	48 83 f8 01          	cmp    $0x1,%rax
  106118:	0f 84 a1 00 00 00    	je     1061bf <_ZN9nothingos9interrupt26keyboard_interrupt_handler17hc57384502e03c71eE+0xcf>
  10611e:	48 83 f8 03          	cmp    $0x3,%rax
  106122:	0f 84 a3 00 00 00    	je     1061cb <_ZN9nothingos9interrupt26keyboard_interrupt_handler17hc57384502e03c71eE+0xdb>
  106128:	0f 1f 84 00 00 00 00 	nopl   0x0(%rax,%rax,1)
  10612f:	00 
  106130:	48 8b 83 f0 02 00 00 	mov    0x2f0(%rbx),%rax
  106137:	48 8d 48 ff          	lea    -0x1(%rax),%rcx
  10613b:	48 83 f9 02          	cmp    $0x2,%rcx
  10613f:	72 19                	jb     10615a <_ZN9nothingos9interrupt26keyboard_interrupt_handler17hc57384502e03c71eE+0x6a>
  106141:	48 83 f8 03          	cmp    $0x3,%rax
  106145:	74 54                	je     10619b <_ZN9nothingos9interrupt26keyboard_interrupt_handler17hc57384502e03c71eE+0xab>
  106147:	f3 90                	pause
  106149:	48 8b 83 f0 02 00 00 	mov    0x2f0(%rbx),%rax
  106150:	48 8d 48 ff          	lea    -0x1(%rax),%rcx
  106154:	48 83 f9 02          	cmp    $0x2,%rcx
  106158:	73 e7                	jae    106141 <_ZN9nothingos9interrupt26keyboard_interrupt_handler17hc57384502e03c71eE+0x51>
  10615a:	b1 01                	mov    $0x1,%cl
  10615c:	0f 1f 40 00          	nopl   0x0(%rax)
  106160:	31 c0                	xor    %eax,%eax
  106162:	f0 0f b0 0b          	lock cmpxchg %cl,(%rbx)
  106166:	75 0a                	jne    106172 <_ZN9nothingos9interrupt26keyboard_interrupt_handler17hc57384502e03c71eE+0x82>
  106168:	eb 11                	jmp    10617b <_ZN9nothingos9interrupt26keyboard_interrupt_handler17hc57384502e03c71eE+0x8b>
  10616a:	66 0f 1f 44 00 00    	nopw   0x0(%rax,%rax,1)
  106170:	f3 90                	pause
  106172:	0f b6 03             	movzbl (%rbx),%eax
  106175:	84 c0                	test   %al,%al
  106177:	75 f7                	jne    106170 <_ZN9nothingos9interrupt26keyboard_interrupt_handler17hc57384502e03c71eE+0x80>
  106179:	eb e5                	jmp    106160 <_ZN9nothingos9interrupt26keyboard_interrupt_handler17hc57384502e03c71eE+0x70>
  10617b:	48 8d 7b 08          	lea    0x8(%rbx),%rdi
  10617f:	e8 2c b2 00 00       	call   1113b0 <_ZN6x2apic5lapic9LocalApic16end_of_interrupt17h1d3e41bdca600fc3E>
  106184:	c6 03 00             	movb   $0x0,(%rbx)
  106187:	48 83 c4 08          	add    $0x8,%rsp
  10618b:	58                   	pop    %rax
  10618c:	5b                   	pop    %rbx
  10618d:	59                   	pop    %rcx
  10618e:	5a                   	pop    %rdx
  10618f:	5e                   	pop    %rsi
  106190:	5f                   	pop    %rdi
  106191:	41 58                	pop    %r8
  106193:	41 59                	pop    %r9
  106195:	41 5a                	pop    %r10
  106197:	41 5b                	pop    %r11
  106199:	48 cf                	iretq
  10619b:	48 8d 3d 15 a7 ff ff 	lea    -0x58eb(%rip),%rdi        # 1008b7 <anon.c6e67b0d64c1d692816e5ffda0fd144d.0.llvm.3069385760615976897>
  1061a2:	48 8d 0d 2f 23 01 00 	lea    0x1232f(%rip),%rcx        # 1184d8 <anon.c6e67b0d64c1d692816e5ffda0fd144d.3.llvm.3069385760615976897>
  1061a9:	4c 8d 05 b8 23 01 00 	lea    0x123b8(%rip),%r8        # 118568 <anon.c6e67b0d64c1d692816e5ffda0fd144d.9.llvm.3069385760615976897>
  1061b0:	48 8d 54 24 07       	lea    0x7(%rsp),%rdx
  1061b5:	be 24 00 00 00       	mov    $0x24,%esi
  1061ba:	e8 a1 0b 01 00       	call   116d60 <_ZN4core6result13unwrap_failed17hf6308fed240e4aa6E>
  1061bf:	48 8d 3d 4a 28 01 00 	lea    0x1284a(%rip),%rdi        # 118a10 <_ZN9nothingos9interrupt6LAPICS17h0361f45f0af18b28E+0x3f8>
  1061c6:	e8 05 0b 01 00       	call   116cd0 <_ZN4core6option13unwrap_failed17he52d730686d7539bE>
  1061cb:	48 8d 3d e5 a6 ff ff 	lea    -0x591b(%rip),%rdi        # 1008b7 <anon.c6e67b0d64c1d692816e5ffda0fd144d.0.llvm.3069385760615976897>
  1061d2:	48 8d 0d ff 22 01 00 	lea    0x122ff(%rip),%rcx        # 1184d8 <anon.c6e67b0d64c1d692816e5ffda0fd144d.3.llvm.3069385760615976897>
  1061d9:	4c 8d 05 70 23 01 00 	lea    0x12370(%rip),%r8        # 118550 <anon.c6e67b0d64c1d692816e5ffda0fd144d.5.llvm.3069385760615976897+0x40>
  1061e0:	48 8d 54 24 07       	lea    0x7(%rsp),%rdx
  1061e5:	be 24 00 00 00       	mov    $0x24,%esi
  1061ea:	e8 71 0b 01 00       	call   116d60 <_ZN4core6result13unwrap_failed17hf6308fed240e4aa6E>
  1061ef:	90                   	nop

00000000001061f0 <_ZN9nothingos9interrupt29primary_ata_interrupt_handler17hb3c81e482660571bE>:
  1061f0:	41 53                	push   %r11
  1061f2:	41 52                	push   %r10
  1061f4:	41 51                	push   %r9
  1061f6:	41 50                	push   %r8
  1061f8:	57                   	push   %rdi
  1061f9:	56                   	push   %rsi
  1061fa:	52                   	push   %rdx
  1061fb:	51                   	push   %rcx
  1061fc:	53                   	push   %rbx
  1061fd:	50                   	push   %rax
  1061fe:	50                   	push   %rax
  1061ff:	fc                   	cld
  106200:	48 8d 1d 11 24 01 00 	lea    0x12411(%rip),%rbx        # 118618 <_ZN9nothingos9interrupt6LAPICS17h0361f45f0af18b28E>
  106207:	48 8b 83 f0 02 00 00 	mov    0x2f0(%rbx),%rax
  10620e:	48 83 f8 02          	cmp    $0x2,%rax
  106212:	74 46                	je     10625a <_ZN9nothingos9interrupt29primary_ata_interrupt_handler17hb3c81e482660571bE+0x6a>
  106214:	48 83 f8 01          	cmp    $0x1,%rax
  106218:	0f 84 a1 00 00 00    	je     1062bf <_ZN9nothingos9interrupt29primary_ata_interrupt_handler17hb3c81e482660571bE+0xcf>
  10621e:	48 83 f8 03          	cmp    $0x3,%rax
  106222:	0f 84 a3 00 00 00    	je     1062cb <_ZN9nothingos9interrupt29primary_ata_interrupt_handler17hb3c81e482660571bE+0xdb>
  106228:	0f 1f 84 00 00 00 00 	nopl   0x0(%rax,%rax,1)
  10622f:	00 
  106230:	48 8b 83 f0 02 00 00 	mov    0x2f0(%rbx),%rax
  106237:	48 8d 48 ff          	lea    -0x1(%rax),%rcx
  10623b:	48 83 f9 02          	cmp    $0x2,%rcx
  10623f:	72 19                	jb     10625a <_ZN9nothingos9interrupt29primary_ata_interrupt_handler17hb3c81e482660571bE+0x6a>
  106241:	48 83 f8 03          	cmp    $0x3,%rax
  106245:	74 54                	je     10629b <_ZN9nothingos9interrupt29primary_ata_interrupt_handler17hb3c81e482660571bE+0xab>
  106247:	f3 90                	pause
  106249:	48 8b 83 f0 02 00 00 	mov    0x2f0(%rbx),%rax
  106250:	48 8d 48 ff          	lea    -0x1(%rax),%rcx
  106254:	48 83 f9 02          	cmp    $0x2,%rcx
  106258:	73 e7                	jae    106241 <_ZN9nothingos9interrupt29primary_ata_interrupt_handler17hb3c81e482660571bE+0x51>
  10625a:	b1 01                	mov    $0x1,%cl
  10625c:	0f 1f 40 00          	nopl   0x0(%rax)
  106260:	31 c0                	xor    %eax,%eax
  106262:	f0 0f b0 0b          	lock cmpxchg %cl,(%rbx)
  106266:	75 0a                	jne    106272 <_ZN9nothingos9interrupt29primary_ata_interrupt_handler17hb3c81e482660571bE+0x82>
  106268:	eb 11                	jmp    10627b <_ZN9nothingos9interrupt29primary_ata_interrupt_handler17hb3c81e482660571bE+0x8b>
  10626a:	66 0f 1f 44 00 00    	nopw   0x0(%rax,%rax,1)
  106270:	f3 90                	pause
  106272:	0f b6 03             	movzbl (%rbx),%eax
  106275:	84 c0                	test   %al,%al
  106277:	75 f7                	jne    106270 <_ZN9nothingos9interrupt29primary_ata_interrupt_handler17hb3c81e482660571bE+0x80>
  106279:	eb e5                	jmp    106260 <_ZN9nothingos9interrupt29primary_ata_interrupt_handler17hb3c81e482660571bE+0x70>
  10627b:	48 8d 7b 08          	lea    0x8(%rbx),%rdi
  10627f:	e8 2c b1 00 00       	call   1113b0 <_ZN6x2apic5lapic9LocalApic16end_of_interrupt17h1d3e41bdca600fc3E>
  106284:	c6 03 00             	movb   $0x0,(%rbx)
  106287:	48 83 c4 08          	add    $0x8,%rsp
  10628b:	58                   	pop    %rax
  10628c:	5b                   	pop    %rbx
  10628d:	59                   	pop    %rcx
  10628e:	5a                   	pop    %rdx
  10628f:	5e                   	pop    %rsi
  106290:	5f                   	pop    %rdi
  106291:	41 58                	pop    %r8
  106293:	41 59                	pop    %r9
  106295:	41 5a                	pop    %r10
  106297:	41 5b                	pop    %r11
  106299:	48 cf                	iretq
  10629b:	48 8d 3d 15 a6 ff ff 	lea    -0x59eb(%rip),%rdi        # 1008b7 <anon.c6e67b0d64c1d692816e5ffda0fd144d.0.llvm.3069385760615976897>
  1062a2:	48 8d 0d 2f 22 01 00 	lea    0x1222f(%rip),%rcx        # 1184d8 <anon.c6e67b0d64c1d692816e5ffda0fd144d.3.llvm.3069385760615976897>
  1062a9:	4c 8d 05 b8 22 01 00 	lea    0x122b8(%rip),%r8        # 118568 <anon.c6e67b0d64c1d692816e5ffda0fd144d.9.llvm.3069385760615976897>
  1062b0:	48 8d 54 24 07       	lea    0x7(%rsp),%rdx
  1062b5:	be 24 00 00 00       	mov    $0x24,%esi
  1062ba:	e8 a1 0a 01 00       	call   116d60 <_ZN4core6result13unwrap_failed17hf6308fed240e4aa6E>
  1062bf:	48 8d 3d 62 27 01 00 	lea    0x12762(%rip),%rdi        # 118a28 <_ZN9nothingos9interrupt6LAPICS17h0361f45f0af18b28E+0x410>
  1062c6:	e8 05 0a 01 00       	call   116cd0 <_ZN4core6option13unwrap_failed17he52d730686d7539bE>
  1062cb:	48 8d 3d e5 a5 ff ff 	lea    -0x5a1b(%rip),%rdi        # 1008b7 <anon.c6e67b0d64c1d692816e5ffda0fd144d.0.llvm.3069385760615976897>
  1062d2:	48 8d 0d ff 21 01 00 	lea    0x121ff(%rip),%rcx        # 1184d8 <anon.c6e67b0d64c1d692816e5ffda0fd144d.3.llvm.3069385760615976897>
  1062d9:	4c 8d 05 70 22 01 00 	lea    0x12270(%rip),%r8        # 118550 <anon.c6e67b0d64c1d692816e5ffda0fd144d.5.llvm.3069385760615976897+0x40>
  1062e0:	48 8d 54 24 07       	lea    0x7(%rsp),%rdx
  1062e5:	be 24 00 00 00       	mov    $0x24,%esi
  1062ea:	e8 71 0a 01 00       	call   116d60 <_ZN4core6result13unwrap_failed17hf6308fed240e4aa6E>
  1062ef:	90                   	nop

00000000001062f0 <_ZN9nothingos9interrupt31secondary_ata_interrupt_handler17h8ec63b372cb89030E>:
  1062f0:	41 53                	push   %r11
  1062f2:	41 52                	push   %r10
  1062f4:	41 51                	push   %r9
  1062f6:	41 50                	push   %r8
  1062f8:	57                   	push   %rdi
  1062f9:	56                   	push   %rsi
  1062fa:	52                   	push   %rdx
  1062fb:	51                   	push   %rcx
  1062fc:	53                   	push   %rbx
  1062fd:	50                   	push   %rax
  1062fe:	50                   	push   %rax
  1062ff:	fc                   	cld
  106300:	48 8d 1d 11 23 01 00 	lea    0x12311(%rip),%rbx        # 118618 <_ZN9nothingos9interrupt6LAPICS17h0361f45f0af18b28E>
  106307:	48 8b 83 f0 02 00 00 	mov    0x2f0(%rbx),%rax
  10630e:	48 83 f8 02          	cmp    $0x2,%rax
  106312:	74 46                	je     10635a <_ZN9nothingos9interrupt31secondary_ata_interrupt_handler17h8ec63b372cb89030E+0x6a>
  106314:	48 83 f8 01          	cmp    $0x1,%rax
  106318:	0f 84 a1 00 00 00    	je     1063bf <_ZN9nothingos9interrupt31secondary_ata_interrupt_handler17h8ec63b372cb89030E+0xcf>
  10631e:	48 83 f8 03          	cmp    $0x3,%rax
  106322:	0f 84 a3 00 00 00    	je     1063cb <_ZN9nothingos9interrupt31secondary_ata_interrupt_handler17h8ec63b372cb89030E+0xdb>
  106328:	0f 1f 84 00 00 00 00 	nopl   0x0(%rax,%rax,1)
  10632f:	00 
  106330:	48 8b 83 f0 02 00 00 	mov    0x2f0(%rbx),%rax
  106337:	48 8d 48 ff          	lea    -0x1(%rax),%rcx
  10633b:	48 83 f9 02          	cmp    $0x2,%rcx
  10633f:	72 19                	jb     10635a <_ZN9nothingos9interrupt31secondary_ata_interrupt_handler17h8ec63b372cb89030E+0x6a>
  106341:	48 83 f8 03          	cmp    $0x3,%rax
  106345:	74 54                	je     10639b <_ZN9nothingos9interrupt31secondary_ata_interrupt_handler17h8ec63b372cb89030E+0xab>
  106347:	f3 90                	pause
  106349:	48 8b 83 f0 02 00 00 	mov    0x2f0(%rbx),%rax
  106350:	48 8d 48 ff          	lea    -0x1(%rax),%rcx
  106354:	48 83 f9 02          	cmp    $0x2,%rcx
  106358:	73 e7                	jae    106341 <_ZN9nothingos9interrupt31secondary_ata_interrupt_handler17h8ec63b372cb89030E+0x51>
  10635a:	b1 01                	mov    $0x1,%cl
  10635c:	0f 1f 40 00          	nopl   0x0(%rax)
  106360:	31 c0                	xor    %eax,%eax
  106362:	f0 0f b0 0b          	lock cmpxchg %cl,(%rbx)
  106366:	75 0a                	jne    106372 <_ZN9nothingos9interrupt31secondary_ata_interrupt_handler17h8ec63b372cb89030E+0x82>
  106368:	eb 11                	jmp    10637b <_ZN9nothingos9interrupt31secondary_ata_interrupt_handler17h8ec63b372cb89030E+0x8b>
  10636a:	66 0f 1f 44 00 00    	nopw   0x0(%rax,%rax,1)
  106370:	f3 90                	pause
  106372:	0f b6 03             	movzbl (%rbx),%eax
  106375:	84 c0                	test   %al,%al
  106377:	75 f7                	jne    106370 <_ZN9nothingos9interrupt31secondary_ata_interrupt_handler17h8ec63b372cb89030E+0x80>
  106379:	eb e5                	jmp    106360 <_ZN9nothingos9interrupt31secondary_ata_interrupt_handler17h8ec63b372cb89030E+0x70>
  10637b:	48 8d 7b 08          	lea    0x8(%rbx),%rdi
  10637f:	e8 2c b0 00 00       	call   1113b0 <_ZN6x2apic5lapic9LocalApic16end_of_interrupt17h1d3e41bdca600fc3E>
  106384:	c6 03 00             	movb   $0x0,(%rbx)
  106387:	48 83 c4 08          	add    $0x8,%rsp
  10638b:	58                   	pop    %rax
  10638c:	5b                   	pop    %rbx
  10638d:	59                   	pop    %rcx
  10638e:	5a                   	pop    %rdx
  10638f:	5e                   	pop    %rsi
  106390:	5f                   	pop    %rdi
  106391:	41 58                	pop    %r8
  106393:	41 59                	pop    %r9
  106395:	41 5a                	pop    %r10
  106397:	41 5b                	pop    %r11
  106399:	48 cf                	iretq
  10639b:	48 8d 3d 15 a5 ff ff 	lea    -0x5aeb(%rip),%rdi        # 1008b7 <anon.c6e67b0d64c1d692816e5ffda0fd144d.0.llvm.3069385760615976897>
  1063a2:	48 8d 0d 2f 21 01 00 	lea    0x1212f(%rip),%rcx        # 1184d8 <anon.c6e67b0d64c1d692816e5ffda0fd144d.3.llvm.3069385760615976897>
  1063a9:	4c 8d 05 b8 21 01 00 	lea    0x121b8(%rip),%r8        # 118568 <anon.c6e67b0d64c1d692816e5ffda0fd144d.9.llvm.3069385760615976897>
  1063b0:	48 8d 54 24 07       	lea    0x7(%rsp),%rdx
  1063b5:	be 24 00 00 00       	mov    $0x24,%esi
  1063ba:	e8 a1 09 01 00       	call   116d60 <_ZN4core6result13unwrap_failed17hf6308fed240e4aa6E>
  1063bf:	48 8d 3d 7a 26 01 00 	lea    0x1267a(%rip),%rdi        # 118a40 <_ZN9nothingos9interrupt6LAPICS17h0361f45f0af18b28E+0x428>
  1063c6:	e8 05 09 01 00       	call   116cd0 <_ZN4core6option13unwrap_failed17he52d730686d7539bE>
  1063cb:	48 8d 3d e5 a4 ff ff 	lea    -0x5b1b(%rip),%rdi        # 1008b7 <anon.c6e67b0d64c1d692816e5ffda0fd144d.0.llvm.3069385760615976897>
  1063d2:	48 8d 0d ff 20 01 00 	lea    0x120ff(%rip),%rcx        # 1184d8 <anon.c6e67b0d64c1d692816e5ffda0fd144d.3.llvm.3069385760615976897>
  1063d9:	4c 8d 05 70 21 01 00 	lea    0x12170(%rip),%r8        # 118550 <anon.c6e67b0d64c1d692816e5ffda0fd144d.5.llvm.3069385760615976897+0x40>
  1063e0:	48 8d 54 24 07       	lea    0x7(%rsp),%rdx
  1063e5:	be 24 00 00 00       	mov    $0x24,%esi
  1063ea:	e8 71 09 01 00       	call   116d60 <_ZN4core6result13unwrap_failed17hf6308fed240e4aa6E>
  1063ef:	90                   	nop

00000000001063f0 <_ZN9nothingos9interrupt18page_fault_handler17hd0ebf32dda564f32E>:
  1063f0:	50                   	push   %rax
  1063f1:	41 57                	push   %r15
  1063f3:	41 56                	push   %r14
  1063f5:	41 53                	push   %r11
  1063f7:	41 52                	push   %r10
  1063f9:	41 51                	push   %r9
  1063fb:	41 50                	push   %r8
  1063fd:	57                   	push   %rdi
  1063fe:	56                   	push   %rsi
  1063ff:	52                   	push   %rdx
  106400:	51                   	push   %rcx
  106401:	53                   	push   %rbx
  106402:	50                   	push   %rax
  106403:	48 81 ec 80 00 00 00 	sub    $0x80,%rsp
  10640a:	fc                   	cld
  10640b:	48 8d 05 46 26 01 00 	lea    0x12646(%rip),%rax        # 118a58 <_ZN9nothingos9interrupt6LAPICS17h0361f45f0af18b28E+0x440>
  106412:	48 89 44 24 08       	mov    %rax,0x8(%rsp)
  106417:	48 c7 44 24 10 01 00 	movq   $0x1,0x10(%rsp)
  10641e:	00 00 
  106420:	48 c7 44 24 28 00 00 	movq   $0x0,0x28(%rsp)
  106427:	00 00 
  106429:	4c 8d 35 b0 a7 ff ff 	lea    -0x5850(%rip),%r14        # 100be0 <anon.8c1f9e3e01bb449180f846e83e39022c.3.llvm.13945740865824956965>
  106430:	4c 89 74 24 18       	mov    %r14,0x18(%rsp)
  106435:	48 c7 44 24 20 00 00 	movq   $0x0,0x20(%rsp)
  10643c:	00 00 
  10643e:	48 8d 7c 24 08       	lea    0x8(%rsp),%rdi
  106443:	e8 78 01 00 00       	call   1065c0 <_ZN9nothingos6serial6_print17heaf67e8bbc7364c4E>
  106448:	e8 e3 f4 ff ff       	call   105930 <_ZN6x86_649registers7control6x86_6449_$LT$impl$u20$x86_64..registers..control..Cr2$GT$4read17h7d271cf9aa1e6919E>
  10644d:	48 89 44 24 70       	mov    %rax,0x70(%rsp)
  106452:	4c 8d 7c 24 70       	lea    0x70(%rsp),%r15
  106457:	4c 89 7c 24 40       	mov    %r15,0x40(%rsp)
  10645c:	48 8d 05 3d ca 00 00 	lea    0xca3d(%rip),%rax        # 112ea0 <_ZN59_$LT$x86_64..addr..VirtAddr$u20$as$u20$core..fmt..Debug$GT$3fmt17hdd0769a8593f173eE>
  106463:	48 89 44 24 48       	mov    %rax,0x48(%rsp)
  106468:	48 8d 05 f9 25 01 00 	lea    0x125f9(%rip),%rax        # 118a68 <_ZN9nothingos9interrupt6LAPICS17h0361f45f0af18b28E+0x450>
  10646f:	48 89 44 24 08       	mov    %rax,0x8(%rsp)
  106474:	48 c7 44 24 10 02 00 	movq   $0x2,0x10(%rsp)
  10647b:	00 00 
  10647d:	48 c7 44 24 28 00 00 	movq   $0x0,0x28(%rsp)
  106484:	00 00 
  106486:	48 8d 5c 24 40       	lea    0x40(%rsp),%rbx
  10648b:	48 89 5c 24 18       	mov    %rbx,0x18(%rsp)
  106490:	48 c7 44 24 20 01 00 	movq   $0x1,0x20(%rsp)
  106497:	00 00 
  106499:	48 8d 7c 24 08       	lea    0x8(%rsp),%rdi
  10649e:	e8 1d 01 00 00       	call   1065c0 <_ZN9nothingos6serial6_print17heaf67e8bbc7364c4E>
  1064a3:	48 8d 84 24 e8 00 00 	lea    0xe8(%rsp),%rax
  1064aa:	00 
  1064ab:	48 89 44 24 40       	mov    %rax,0x40(%rsp)
  1064b0:	48 8d 05 c9 f4 ff ff 	lea    -0xb37(%rip),%rax        # 105980 <_ZN80_$LT$x86_64..structures..idt..PageFaultErrorCode$u20$as$u20$core..fmt..Debug$GT$3fmt17h5109c468c6d985beE>
  1064b7:	48 89 44 24 48       	mov    %rax,0x48(%rsp)
  1064bc:	48 8d 05 c5 25 01 00 	lea    0x125c5(%rip),%rax        # 118a88 <_ZN9nothingos9interrupt6LAPICS17h0361f45f0af18b28E+0x470>
  1064c3:	48 89 44 24 08       	mov    %rax,0x8(%rsp)
  1064c8:	48 c7 44 24 10 02 00 	movq   $0x2,0x10(%rsp)
  1064cf:	00 00 
  1064d1:	48 c7 44 24 28 00 00 	movq   $0x0,0x28(%rsp)
  1064d8:	00 00 
  1064da:	48 89 5c 24 18       	mov    %rbx,0x18(%rsp)
  1064df:	48 c7 44 24 20 01 00 	movq   $0x1,0x20(%rsp)
  1064e6:	00 00 
  1064e8:	48 8d 5c 24 08       	lea    0x8(%rsp),%rbx
  1064ed:	48 89 df             	mov    %rbx,%rdi
  1064f0:	e8 cb 00 00 00       	call   1065c0 <_ZN9nothingos6serial6_print17heaf67e8bbc7364c4E>
  1064f5:	48 8d 84 24 f0 00 00 	lea    0xf0(%rsp),%rax
  1064fc:	00 
  1064fd:	48 89 44 24 70       	mov    %rax,0x70(%rsp)
  106502:	48 8d 05 a7 f4 ff ff 	lea    -0xb59(%rip),%rax        # 1059b0 <_ZN81_$LT$x86_64..structures..idt..InterruptStackFrame$u20$as$u20$core..fmt..Debug$GT$3fmt17ha031b59219450a40E>
  106509:	48 89 44 24 78       	mov    %rax,0x78(%rsp)
  10650e:	48 c7 44 24 08 02 00 	movq   $0x2,0x8(%rsp)
  106515:	00 00 
  106517:	48 c7 44 24 18 02 00 	movq   $0x2,0x18(%rsp)
  10651e:	00 00 
  106520:	48 c7 44 24 28 00 00 	movq   $0x0,0x28(%rsp)
  106527:	00 00 
  106529:	48 b8 20 00 00 00 04 	movabs $0x400000020,%rax
  106530:	00 00 00 
  106533:	48 89 44 24 30       	mov    %rax,0x30(%rsp)
  106538:	c6 44 24 38 03       	movb   $0x3,0x38(%rsp)
  10653d:	48 8d 05 64 25 01 00 	lea    0x12564(%rip),%rax        # 118aa8 <_ZN9nothingos9interrupt6LAPICS17h0361f45f0af18b28E+0x490>
  106544:	48 89 44 24 40       	mov    %rax,0x40(%rsp)
  106549:	48 c7 44 24 48 02 00 	movq   $0x2,0x48(%rsp)
  106550:	00 00 
  106552:	48 89 5c 24 60       	mov    %rbx,0x60(%rsp)
  106557:	48 c7 44 24 68 01 00 	movq   $0x1,0x68(%rsp)
  10655e:	00 00 
  106560:	4c 89 7c 24 50       	mov    %r15,0x50(%rsp)
  106565:	48 c7 44 24 58 01 00 	movq   $0x1,0x58(%rsp)
  10656c:	00 00 
  10656e:	48 8d 7c 24 40       	lea    0x40(%rsp),%rdi
  106573:	e8 48 00 00 00       	call   1065c0 <_ZN9nothingos6serial6_print17heaf67e8bbc7364c4E>
  106578:	48 8d 05 49 25 01 00 	lea    0x12549(%rip),%rax        # 118ac8 <_ZN9nothingos9interrupt6LAPICS17h0361f45f0af18b28E+0x4b0>
  10657f:	48 89 44 24 08       	mov    %rax,0x8(%rsp)
  106584:	48 c7 44 24 10 01 00 	movq   $0x1,0x10(%rsp)
  10658b:	00 00 
  10658d:	48 c7 44 24 28 00 00 	movq   $0x0,0x28(%rsp)
  106594:	00 00 
  106596:	4c 89 74 24 18       	mov    %r14,0x18(%rsp)
  10659b:	48 c7 44 24 20 00 00 	movq   $0x0,0x20(%rsp)
  1065a2:	00 00 
  1065a4:	48 8d 35 2d 25 01 00 	lea    0x1252d(%rip),%rsi        # 118ad8 <_ZN9nothingos9interrupt6LAPICS17h0361f45f0af18b28E+0x4c0>
  1065ab:	48 8d 7c 24 08       	lea    0x8(%rsp),%rdi
  1065b0:	e8 4b ee 00 00       	call   115400 <_ZN4core9panicking9panic_fmt17h625e3df7341abadfE>
  1065b5:	66 2e 0f 1f 84 00 00 	cs nopw 0x0(%rax,%rax,1)
  1065bc:	00 00 00 
  1065bf:	90                   	nop

00000000001065c0 <_ZN9nothingos6serial6_print17heaf67e8bbc7364c4E>:
  1065c0:	41 56                	push   %r14
  1065c2:	53                   	push   %rbx
  1065c3:	50                   	push   %rax
  1065c4:	48 89 fb             	mov    %rdi,%rbx
  1065c7:	9c                   	pushf
  1065c8:	58                   	pop    %rax
  1065c9:	a9 00 02 00 00       	test   $0x200,%eax
  1065ce:	75 3c                	jne    10660c <_ZN9nothingos6serial6_print17heaf67e8bbc7364c4E+0x4c>
  1065d0:	48 8d 3d 69 6a 01 00 	lea    0x16a69(%rip),%rdi        # 11d040 <_ZN70_$LT$nothingos..serial..SERIAL1$u20$as$u20$core..ops..deref..Deref$GT$5deref11__stability4LAZY17h3c6cbf1ff5b8c1e4E.llvm.3069385760615976897>
  1065d7:	e8 b4 87 00 00       	call   10ed90 <_ZN4spin4once13Once$LT$T$GT$9call_once17hb3b4133881bb3f3bE>
  1065dc:	49 89 c6             	mov    %rax,%r14
  1065df:	b1 01                	mov    $0x1,%cl
  1065e1:	66 66 66 66 66 66 2e 	data16 data16 data16 data16 data16 cs nopw 0x0(%rax,%rax,1)
  1065e8:	0f 1f 84 00 00 00 00 
  1065ef:	00 
  1065f0:	31 c0                	xor    %eax,%eax
  1065f2:	f0 41 0f b0 0e       	lock cmpxchg %cl,(%r14)
  1065f7:	75 09                	jne    106602 <_ZN9nothingos6serial6_print17heaf67e8bbc7364c4E+0x42>
  1065f9:	eb 41                	jmp    10663c <_ZN9nothingos6serial6_print17heaf67e8bbc7364c4E+0x7c>
  1065fb:	0f 1f 44 00 00       	nopl   0x0(%rax,%rax,1)
  106600:	f3 90                	pause
  106602:	41 0f b6 06          	movzbl (%r14),%eax
  106606:	84 c0                	test   %al,%al
  106608:	75 f6                	jne    106600 <_ZN9nothingos6serial6_print17heaf67e8bbc7364c4E+0x40>
  10660a:	eb e4                	jmp    1065f0 <_ZN9nothingos6serial6_print17heaf67e8bbc7364c4E+0x30>
  10660c:	fa                   	cli
  10660d:	48 8d 3d 2c 6a 01 00 	lea    0x16a2c(%rip),%rdi        # 11d040 <_ZN70_$LT$nothingos..serial..SERIAL1$u20$as$u20$core..ops..deref..Deref$GT$5deref11__stability4LAZY17h3c6cbf1ff5b8c1e4E.llvm.3069385760615976897>
  106614:	e8 77 87 00 00       	call   10ed90 <_ZN4spin4once13Once$LT$T$GT$9call_once17hb3b4133881bb3f3bE>
  106619:	49 89 c6             	mov    %rax,%r14
  10661c:	b1 01                	mov    $0x1,%cl
  10661e:	66 90                	xchg   %ax,%ax
  106620:	31 c0                	xor    %eax,%eax
  106622:	f0 41 0f b0 0e       	lock cmpxchg %cl,(%r14)
  106627:	75 09                	jne    106632 <_ZN9nothingos6serial6_print17heaf67e8bbc7364c4E+0x72>
  106629:	eb 37                	jmp    106662 <_ZN9nothingos6serial6_print17heaf67e8bbc7364c4E+0xa2>
  10662b:	0f 1f 44 00 00       	nopl   0x0(%rax,%rax,1)
  106630:	f3 90                	pause
  106632:	41 0f b6 06          	movzbl (%r14),%eax
  106636:	84 c0                	test   %al,%al
  106638:	75 f6                	jne    106630 <_ZN9nothingos6serial6_print17heaf67e8bbc7364c4E+0x70>
  10663a:	eb e4                	jmp    106620 <_ZN9nothingos6serial6_print17heaf67e8bbc7364c4E+0x60>
  10663c:	4c 89 f7             	mov    %r14,%rdi
  10663f:	48 83 c7 02          	add    $0x2,%rdi
  106643:	48 8d 35 6e 1f 01 00 	lea    0x11f6e(%rip),%rsi        # 1185b8 <anon.c6e67b0d64c1d692816e5ffda0fd144d.9.llvm.3069385760615976897+0x50>
  10664a:	48 89 da             	mov    %rbx,%rdx
  10664d:	e8 4e d4 00 00       	call   113aa0 <_ZN4core3fmt5write17h79356d2facc18c16E>
  106652:	84 c0                	test   %al,%al
  106654:	75 33                	jne    106689 <_ZN9nothingos6serial6_print17heaf67e8bbc7364c4E+0xc9>
  106656:	41 c6 06 00          	movb   $0x0,(%r14)
  10665a:	48 83 c4 08          	add    $0x8,%rsp
  10665e:	5b                   	pop    %rbx
  10665f:	41 5e                	pop    %r14
  106661:	c3                   	ret
  106662:	4c 89 f7             	mov    %r14,%rdi
  106665:	48 83 c7 02          	add    $0x2,%rdi
  106669:	48 8d 35 48 1f 01 00 	lea    0x11f48(%rip),%rsi        # 1185b8 <anon.c6e67b0d64c1d692816e5ffda0fd144d.9.llvm.3069385760615976897+0x50>
  106670:	48 89 da             	mov    %rbx,%rdx
  106673:	e8 28 d4 00 00       	call   113aa0 <_ZN4core3fmt5write17h79356d2facc18c16E>
  106678:	84 c0                	test   %al,%al
  10667a:	75 0d                	jne    106689 <_ZN9nothingos6serial6_print17heaf67e8bbc7364c4E+0xc9>
  10667c:	41 c6 06 00          	movb   $0x0,(%r14)
  106680:	fb                   	sti
  106681:	48 83 c4 08          	add    $0x8,%rsp
  106685:	5b                   	pop    %rbx
  106686:	41 5e                	pop    %r14
  106688:	c3                   	ret
  106689:	48 8d 3d 25 a5 ff ff 	lea    -0x5adb(%rip),%rdi        # 100bb5 <anon.58882bd27740fa1b3269755e94baba0c.7.llvm.13232789746018576205+0x10c>
  106690:	48 8d 0d 59 24 01 00 	lea    0x12459(%rip),%rcx        # 118af0 <_ZN9nothingos9interrupt6LAPICS17h0361f45f0af18b28E+0x4d8>
  106697:	4c 8d 05 72 24 01 00 	lea    0x12472(%rip),%r8        # 118b10 <_ZN9nothingos9interrupt6LAPICS17h0361f45f0af18b28E+0x4f8>
  10669e:	48 8d 54 24 07       	lea    0x7(%rsp),%rdx
  1066a3:	be 19 00 00 00       	mov    $0x19,%esi
  1066a8:	e8 b3 06 01 00       	call   116d60 <_ZN4core6result13unwrap_failed17hf6308fed240e4aa6E>
  1066ad:	0f 1f 00             	nopl   (%rax)

00000000001066b0 <_ZN15crossbeam_queue11array_queue19ArrayQueue$LT$T$GT$3pop17h2a6d6142ea779672E>:
  1066b0:	53                   	push   %rbx
  1066b1:	48 8b 0f             	mov    (%rdi),%rcx
  1066b4:	45 31 c0             	xor    %r8d,%r8d
  1066b7:	31 f6                	xor    %esi,%esi
  1066b9:	eb 09                	jmp    1066c4 <_ZN15crossbeam_queue11array_queue19ArrayQueue$LT$T$GT$3pop17h2a6d6142ea779672E+0x14>
  1066bb:	83 fe 0b             	cmp    $0xb,%esi
  1066be:	83 d6 00             	adc    $0x0,%esi
  1066c1:	48 8b 0f             	mov    (%rdi),%rcx
  1066c4:	48 8b 97 00 01 00 00 	mov    0x100(%rdi),%rdx
  1066cb:	48 8b 87 10 01 00 00 	mov    0x110(%rdi),%rax
  1066d2:	4c 8d 58 ff          	lea    -0x1(%rax),%r11
  1066d6:	49 21 cb             	and    %rcx,%r11
  1066d9:	4f 8d 0c 5b          	lea    (%r11,%r11,2),%r9
  1066dd:	4e 8b 54 ca 10       	mov    0x10(%rdx,%r9,8),%r10
  1066e2:	48 8d 59 01          	lea    0x1(%rcx),%rbx
  1066e6:	4c 39 d3             	cmp    %r10,%rbx
  1066e9:	75 65                	jne    106750 <_ZN15crossbeam_queue11array_queue19ArrayQueue$LT$T$GT$3pop17h2a6d6142ea779672E+0xa0>
  1066eb:	49 ff c3             	inc    %r11
  1066ee:	4c 3b 9f 08 01 00 00 	cmp    0x108(%rdi),%r11
  1066f5:	72 10                	jb     106707 <_ZN15crossbeam_queue11array_queue19ArrayQueue$LT$T$GT$3pop17h2a6d6142ea779672E+0x57>
  1066f7:	48 f7 d8             	neg    %rax
  1066fa:	48 21 c8             	and    %rcx,%rax
  1066fd:	48 03 87 10 01 00 00 	add    0x110(%rdi),%rax
  106704:	49 89 c2             	mov    %rax,%r10
  106707:	48 89 c8             	mov    %rcx,%rax
  10670a:	f0 4c 0f b1 17       	lock cmpxchg %r10,(%rdi)
  10670f:	0f 84 06 01 00 00    	je     10681b <_ZN15crossbeam_queue11array_queue19ArrayQueue$LT$T$GT$3pop17h2a6d6142ea779672E+0x16b>
  106715:	83 fe 06             	cmp    $0x6,%esi
  106718:	b9 06 00 00 00       	mov    $0x6,%ecx
  10671d:	0f 42 ce             	cmovb  %esi,%ecx
  106720:	ba 01 00 00 00       	mov    $0x1,%edx
  106725:	66 66 2e 0f 1f 84 00 	data16 cs nopw 0x0(%rax,%rax,1)
  10672c:	00 00 00 00 
  106730:	f3 90                	pause
  106732:	41 89 d1             	mov    %edx,%r9d
  106735:	41 d3 e9             	shr    %cl,%r9d
  106738:	ff c2                	inc    %edx
  10673a:	45 85 c9             	test   %r9d,%r9d
  10673d:	74 f1                	je     106730 <_ZN15crossbeam_queue11array_queue19ArrayQueue$LT$T$GT$3pop17h2a6d6142ea779672E+0x80>
  10673f:	83 fe 07             	cmp    $0x7,%esi
  106742:	83 d6 00             	adc    $0x0,%esi
  106745:	48 89 c1             	mov    %rax,%rcx
  106748:	e9 77 ff ff ff       	jmp    1066c4 <_ZN15crossbeam_queue11array_queue19ArrayQueue$LT$T$GT$3pop17h2a6d6142ea779672E+0x14>
  10674d:	0f 1f 00             	nopl   (%rax)
  106750:	49 39 ca             	cmp    %rcx,%r10
  106753:	75 4b                	jne    1067a0 <_ZN15crossbeam_queue11array_queue19ArrayQueue$LT$T$GT$3pop17h2a6d6142ea779672E+0xf0>
  106755:	0f ae f0             	mfence
  106758:	48 8b 87 80 00 00 00 	mov    0x80(%rdi),%rax
  10675f:	48 39 c8             	cmp    %rcx,%rax
  106762:	0f 84 ce 00 00 00    	je     106836 <_ZN15crossbeam_queue11array_queue19ArrayQueue$LT$T$GT$3pop17h2a6d6142ea779672E+0x186>
  106768:	83 fe 06             	cmp    $0x6,%esi
  10676b:	b9 06 00 00 00       	mov    $0x6,%ecx
  106770:	0f 42 ce             	cmovb  %esi,%ecx
  106773:	b8 01 00 00 00       	mov    $0x1,%eax
  106778:	0f 1f 84 00 00 00 00 	nopl   0x0(%rax,%rax,1)
  10677f:	00 
  106780:	f3 90                	pause
  106782:	89 c2                	mov    %eax,%edx
  106784:	d3 ea                	shr    %cl,%edx
  106786:	ff c0                	inc    %eax
  106788:	85 d2                	test   %edx,%edx
  10678a:	74 f4                	je     106780 <_ZN15crossbeam_queue11array_queue19ArrayQueue$LT$T$GT$3pop17h2a6d6142ea779672E+0xd0>
  10678c:	83 fe 07             	cmp    $0x7,%esi
  10678f:	83 d6 00             	adc    $0x0,%esi
  106792:	48 8b 0f             	mov    (%rdi),%rcx
  106795:	e9 2a ff ff ff       	jmp    1066c4 <_ZN15crossbeam_queue11array_queue19ArrayQueue$LT$T$GT$3pop17h2a6d6142ea779672E+0x14>
  10679a:	66 0f 1f 44 00 00    	nopw   0x0(%rax,%rax,1)
  1067a0:	83 fe 06             	cmp    $0x6,%esi
  1067a3:	77 1e                	ja     1067c3 <_ZN15crossbeam_queue11array_queue19ArrayQueue$LT$T$GT$3pop17h2a6d6142ea779672E+0x113>
  1067a5:	b8 01 00 00 00       	mov    $0x1,%eax
  1067aa:	66 0f 1f 44 00 00    	nopw   0x0(%rax,%rax,1)
  1067b0:	f3 90                	pause
  1067b2:	89 c2                	mov    %eax,%edx
  1067b4:	89 f1                	mov    %esi,%ecx
  1067b6:	d3 ea                	shr    %cl,%edx
  1067b8:	ff c0                	inc    %eax
  1067ba:	85 d2                	test   %edx,%edx
  1067bc:	74 f2                	je     1067b0 <_ZN15crossbeam_queue11array_queue19ArrayQueue$LT$T$GT$3pop17h2a6d6142ea779672E+0x100>
  1067be:	e9 f8 fe ff ff       	jmp    1066bb <_ZN15crossbeam_queue11array_queue19ArrayQueue$LT$T$GT$3pop17h2a6d6142ea779672E+0xb>
  1067c3:	89 f1                	mov    %esi,%ecx
  1067c5:	83 e1 1f             	and    $0x1f,%ecx
  1067c8:	83 f9 1f             	cmp    $0x1f,%ecx
  1067cb:	0f 84 f0 fe ff ff    	je     1066c1 <_ZN15crossbeam_queue11array_queue19ArrayQueue$LT$T$GT$3pop17h2a6d6142ea779672E+0x11>
  1067d1:	b8 01 00 00 00       	mov    $0x1,%eax
  1067d6:	d3 e0                	shl    %cl,%eax
  1067d8:	8d 48 ff             	lea    -0x1(%rax),%ecx
  1067db:	83 f9 07             	cmp    $0x7,%ecx
  1067de:	72 25                	jb     106805 <_ZN15crossbeam_queue11array_queue19ArrayQueue$LT$T$GT$3pop17h2a6d6142ea779672E+0x155>
  1067e0:	89 c1                	mov    %eax,%ecx
  1067e2:	83 e1 f8             	and    $0xfffffff8,%ecx
  1067e5:	66 66 2e 0f 1f 84 00 	data16 cs nopw 0x0(%rax,%rax,1)
  1067ec:	00 00 00 00 
  1067f0:	f3 90                	pause
  1067f2:	f3 90                	pause
  1067f4:	f3 90                	pause
  1067f6:	f3 90                	pause
  1067f8:	f3 90                	pause
  1067fa:	f3 90                	pause
  1067fc:	f3 90                	pause
  1067fe:	f3 90                	pause
  106800:	83 c1 f8             	add    $0xfffffff8,%ecx
  106803:	75 eb                	jne    1067f0 <_ZN15crossbeam_queue11array_queue19ArrayQueue$LT$T$GT$3pop17h2a6d6142ea779672E+0x140>
  106805:	83 e0 07             	and    $0x7,%eax
  106808:	0f 84 ad fe ff ff    	je     1066bb <_ZN15crossbeam_queue11array_queue19ArrayQueue$LT$T$GT$3pop17h2a6d6142ea779672E+0xb>
  10680e:	66 90                	xchg   %ax,%ax
  106810:	f3 90                	pause
  106812:	ff c8                	dec    %eax
  106814:	75 fa                	jne    106810 <_ZN15crossbeam_queue11array_queue19ArrayQueue$LT$T$GT$3pop17h2a6d6142ea779672E+0x160>
  106816:	e9 a0 fe ff ff       	jmp    1066bb <_ZN15crossbeam_queue11array_queue19ArrayQueue$LT$T$GT$3pop17h2a6d6142ea779672E+0xb>
  10681b:	4a 8d 04 ca          	lea    (%rdx,%r9,8),%rax
  10681f:	4c 8b 00             	mov    (%rax),%r8
  106822:	48 8b 50 08          	mov    0x8(%rax),%rdx
  106826:	48 03 8f 10 01 00 00 	add    0x110(%rdi),%rcx
  10682d:	48 89 48 10          	mov    %rcx,0x10(%rax)
  106831:	4c 89 c0             	mov    %r8,%rax
  106834:	5b                   	pop    %rbx
  106835:	c3                   	ret
  106836:	4c 89 c0             	mov    %r8,%rax
  106839:	5b                   	pop    %rbx
  10683a:	c3                   	ret
  10683b:	0f 1f 44 00 00       	nopl   0x0(%rax,%rax,1)

0000000000106840 <_ZN15crossbeam_queue11array_queue19ArrayQueue$LT$T$GT$3pop17h6e57219148aba380E>:
  106840:	53                   	push   %rbx
  106841:	48 8b 0f             	mov    (%rdi),%rcx
  106844:	31 f6                	xor    %esi,%esi
  106846:	eb 09                	jmp    106851 <_ZN15crossbeam_queue11array_queue19ArrayQueue$LT$T$GT$3pop17h6e57219148aba380E+0x11>
  106848:	83 fe 0b             	cmp    $0xb,%esi
  10684b:	83 d6 00             	adc    $0x0,%esi
  10684e:	48 8b 0f             	mov    (%rdi),%rcx
  106851:	4c 8b 97 00 01 00 00 	mov    0x100(%rdi),%r10
  106858:	48 8b 87 10 01 00 00 	mov    0x110(%rdi),%rax
  10685f:	4c 8d 58 ff          	lea    -0x1(%rax),%r11
  106863:	49 21 cb             	and    %rcx,%r11
  106866:	4c 89 da             	mov    %r11,%rdx
  106869:	48 c1 e2 04          	shl    $0x4,%rdx
  10686d:	4d 8b 04 12          	mov    (%r10,%rdx,1),%r8
  106871:	4c 8d 49 01          	lea    0x1(%rcx),%r9
  106875:	4d 39 c1             	cmp    %r8,%r9
  106878:	74 56                	je     1068d0 <_ZN15crossbeam_queue11array_queue19ArrayQueue$LT$T$GT$3pop17h6e57219148aba380E+0x90>
  10687a:	49 39 c8             	cmp    %rcx,%r8
  10687d:	0f 85 ad 00 00 00    	jne    106930 <_ZN15crossbeam_queue11array_queue19ArrayQueue$LT$T$GT$3pop17h6e57219148aba380E+0xf0>
  106883:	0f ae f0             	mfence
  106886:	48 8b 87 80 00 00 00 	mov    0x80(%rdi),%rax
  10688d:	48 39 c8             	cmp    %rcx,%rax
  106890:	0f 84 27 01 00 00    	je     1069bd <_ZN15crossbeam_queue11array_queue19ArrayQueue$LT$T$GT$3pop17h6e57219148aba380E+0x17d>
  106896:	83 fe 06             	cmp    $0x6,%esi
  106899:	b9 06 00 00 00       	mov    $0x6,%ecx
  10689e:	0f 42 ce             	cmovb  %esi,%ecx
  1068a1:	b8 01 00 00 00       	mov    $0x1,%eax
  1068a6:	66 2e 0f 1f 84 00 00 	cs nopw 0x0(%rax,%rax,1)
  1068ad:	00 00 00 
  1068b0:	f3 90                	pause
  1068b2:	89 c2                	mov    %eax,%edx
  1068b4:	d3 ea                	shr    %cl,%edx
  1068b6:	ff c0                	inc    %eax
  1068b8:	85 d2                	test   %edx,%edx
  1068ba:	74 f4                	je     1068b0 <_ZN15crossbeam_queue11array_queue19ArrayQueue$LT$T$GT$3pop17h6e57219148aba380E+0x70>
  1068bc:	83 fe 07             	cmp    $0x7,%esi
  1068bf:	83 d6 00             	adc    $0x0,%esi
  1068c2:	48 8b 0f             	mov    (%rdi),%rcx
  1068c5:	eb 8a                	jmp    106851 <_ZN15crossbeam_queue11array_queue19ArrayQueue$LT$T$GT$3pop17h6e57219148aba380E+0x11>
  1068c7:	66 0f 1f 84 00 00 00 	nopw   0x0(%rax,%rax,1)
  1068ce:	00 00 
  1068d0:	49 ff c3             	inc    %r11
  1068d3:	4c 89 c3             	mov    %r8,%rbx
  1068d6:	4c 3b 9f 08 01 00 00 	cmp    0x108(%rdi),%r11
  1068dd:	72 10                	jb     1068ef <_ZN15crossbeam_queue11array_queue19ArrayQueue$LT$T$GT$3pop17h6e57219148aba380E+0xaf>
  1068df:	48 f7 d8             	neg    %rax
  1068e2:	48 21 c8             	and    %rcx,%rax
  1068e5:	48 03 87 10 01 00 00 	add    0x110(%rdi),%rax
  1068ec:	48 89 c3             	mov    %rax,%rbx
  1068ef:	48 89 c8             	mov    %rcx,%rax
  1068f2:	f0 48 0f b1 1f       	lock cmpxchg %rbx,(%rdi)
  1068f7:	0f 84 ae 00 00 00    	je     1069ab <_ZN15crossbeam_queue11array_queue19ArrayQueue$LT$T$GT$3pop17h6e57219148aba380E+0x16b>
  1068fd:	83 fe 06             	cmp    $0x6,%esi
  106900:	b9 06 00 00 00       	mov    $0x6,%ecx
  106905:	0f 42 ce             	cmovb  %esi,%ecx
  106908:	ba 01 00 00 00       	mov    $0x1,%edx
  10690d:	0f 1f 00             	nopl   (%rax)
  106910:	f3 90                	pause
  106912:	41 89 d0             	mov    %edx,%r8d
  106915:	41 d3 e8             	shr    %cl,%r8d
  106918:	ff c2                	inc    %edx
  10691a:	45 85 c0             	test   %r8d,%r8d
  10691d:	74 f1                	je     106910 <_ZN15crossbeam_queue11array_queue19ArrayQueue$LT$T$GT$3pop17h6e57219148aba380E+0xd0>
  10691f:	83 fe 07             	cmp    $0x7,%esi
  106922:	83 d6 00             	adc    $0x0,%esi
  106925:	48 89 c1             	mov    %rax,%rcx
  106928:	e9 24 ff ff ff       	jmp    106851 <_ZN15crossbeam_queue11array_queue19ArrayQueue$LT$T$GT$3pop17h6e57219148aba380E+0x11>
  10692d:	0f 1f 00             	nopl   (%rax)
  106930:	83 fe 06             	cmp    $0x6,%esi
  106933:	77 1e                	ja     106953 <_ZN15crossbeam_queue11array_queue19ArrayQueue$LT$T$GT$3pop17h6e57219148aba380E+0x113>
  106935:	b8 01 00 00 00       	mov    $0x1,%eax
  10693a:	66 0f 1f 44 00 00    	nopw   0x0(%rax,%rax,1)
  106940:	f3 90                	pause
  106942:	89 c2                	mov    %eax,%edx
  106944:	89 f1                	mov    %esi,%ecx
  106946:	d3 ea                	shr    %cl,%edx
  106948:	ff c0                	inc    %eax
  10694a:	85 d2                	test   %edx,%edx
  10694c:	74 f2                	je     106940 <_ZN15crossbeam_queue11array_queue19ArrayQueue$LT$T$GT$3pop17h6e57219148aba380E+0x100>
  10694e:	e9 f5 fe ff ff       	jmp    106848 <_ZN15crossbeam_queue11array_queue19ArrayQueue$LT$T$GT$3pop17h6e57219148aba380E+0x8>
  106953:	89 f1                	mov    %esi,%ecx
  106955:	83 e1 1f             	and    $0x1f,%ecx
  106958:	83 f9 1f             	cmp    $0x1f,%ecx
  10695b:	0f 84 ed fe ff ff    	je     10684e <_ZN15crossbeam_queue11array_queue19ArrayQueue$LT$T$GT$3pop17h6e57219148aba380E+0xe>
  106961:	b8 01 00 00 00       	mov    $0x1,%eax
  106966:	d3 e0                	shl    %cl,%eax
  106968:	8d 48 ff             	lea    -0x1(%rax),%ecx
  10696b:	83 f9 07             	cmp    $0x7,%ecx
  10696e:	72 25                	jb     106995 <_ZN15crossbeam_queue11array_queue19ArrayQueue$LT$T$GT$3pop17h6e57219148aba380E+0x155>
  106970:	89 c1                	mov    %eax,%ecx
  106972:	83 e1 f8             	and    $0xfffffff8,%ecx
  106975:	66 66 2e 0f 1f 84 00 	data16 cs nopw 0x0(%rax,%rax,1)
  10697c:	00 00 00 00 
  106980:	f3 90                	pause
  106982:	f3 90                	pause
  106984:	f3 90                	pause
  106986:	f3 90                	pause
  106988:	f3 90                	pause
  10698a:	f3 90                	pause
  10698c:	f3 90                	pause
  10698e:	f3 90                	pause
  106990:	83 c1 f8             	add    $0xfffffff8,%ecx
  106993:	75 eb                	jne    106980 <_ZN15crossbeam_queue11array_queue19ArrayQueue$LT$T$GT$3pop17h6e57219148aba380E+0x140>
  106995:	83 e0 07             	and    $0x7,%eax
  106998:	0f 84 aa fe ff ff    	je     106848 <_ZN15crossbeam_queue11array_queue19ArrayQueue$LT$T$GT$3pop17h6e57219148aba380E+0x8>
  10699e:	66 90                	xchg   %ax,%ax
  1069a0:	f3 90                	pause
  1069a2:	ff c8                	dec    %eax
  1069a4:	75 fa                	jne    1069a0 <_ZN15crossbeam_queue11array_queue19ArrayQueue$LT$T$GT$3pop17h6e57219148aba380E+0x160>
  1069a6:	e9 9d fe ff ff       	jmp    106848 <_ZN15crossbeam_queue11array_queue19ArrayQueue$LT$T$GT$3pop17h6e57219148aba380E+0x8>
  1069ab:	49 01 d2             	add    %rdx,%r10
  1069ae:	41 0f b6 52 08       	movzbl 0x8(%r10),%edx
  1069b3:	48 03 8f 10 01 00 00 	add    0x110(%rdi),%rcx
  1069ba:	49 89 0a             	mov    %rcx,(%r10)
  1069bd:	4d 39 c1             	cmp    %r8,%r9
  1069c0:	0f 95 c0             	setne  %al
  1069c3:	5b                   	pop    %rbx
  1069c4:	c3                   	ret
  1069c5:	66 2e 0f 1f 84 00 00 	cs nopw 0x0(%rax,%rax,1)
  1069cc:	00 00 00 
  1069cf:	90                   	nop

00000000001069d0 <_ZN15crossbeam_queue11array_queue19ArrayQueue$LT$T$GT$4push17h02a0b324f460f0c8E>:
  1069d0:	53                   	push   %rbx
  1069d1:	48 8b 8f 80 00 00 00 	mov    0x80(%rdi),%rcx
  1069d8:	45 31 c0             	xor    %r8d,%r8d
  1069db:	eb 0f                	jmp    1069ec <_ZN15crossbeam_queue11array_queue19ArrayQueue$LT$T$GT$4push17h02a0b324f460f0c8E+0x1c>
  1069dd:	41 83 f8 0b          	cmp    $0xb,%r8d
  1069e1:	41 83 d0 00          	adc    $0x0,%r8d
  1069e5:	48 8b 8f 80 00 00 00 	mov    0x80(%rdi),%rcx
  1069ec:	4c 8b 8f 00 01 00 00 	mov    0x100(%rdi),%r9
  1069f3:	4c 8b 9f 10 01 00 00 	mov    0x110(%rdi),%r11
  1069fa:	49 8d 43 ff          	lea    -0x1(%r11),%rax
  1069fe:	48 21 c8             	and    %rcx,%rax
  106a01:	4c 8d 14 40          	lea    (%rax,%rax,2),%r10
  106a05:	4b 8b 5c d1 10       	mov    0x10(%r9,%r10,8),%rbx
  106a0a:	48 39 d9             	cmp    %rbx,%rcx
  106a0d:	75 31                	jne    106a40 <_ZN15crossbeam_queue11array_queue19ArrayQueue$LT$T$GT$4push17h02a0b324f460f0c8E+0x70>
  106a0f:	48 ff c0             	inc    %rax
  106a12:	48 3b 87 08 01 00 00 	cmp    0x108(%rdi),%rax
  106a19:	0f 83 91 00 00 00    	jae    106ab0 <_ZN15crossbeam_queue11array_queue19ArrayQueue$LT$T$GT$4push17h02a0b324f460f0c8E+0xe0>
  106a1f:	4c 8d 59 01          	lea    0x1(%rcx),%r11
  106a23:	48 89 c8             	mov    %rcx,%rax
  106a26:	f0 4c 0f b1 9f 80 00 	lock cmpxchg %r11,0x80(%rdi)
  106a2d:	00 00 
  106a2f:	0f 85 9a 00 00 00    	jne    106acf <_ZN15crossbeam_queue11array_queue19ArrayQueue$LT$T$GT$4push17h02a0b324f460f0c8E+0xff>
  106a35:	e9 51 01 00 00       	jmp    106b8b <_ZN15crossbeam_queue11array_queue19ArrayQueue$LT$T$GT$4push17h02a0b324f460f0c8E+0x1bb>
  106a3a:	66 0f 1f 44 00 00    	nopw   0x0(%rax,%rax,1)
  106a40:	48 03 9f 10 01 00 00 	add    0x110(%rdi),%rbx
  106a47:	48 8d 41 01          	lea    0x1(%rcx),%rax
  106a4b:	48 39 c3             	cmp    %rax,%rbx
  106a4e:	0f 85 bc 00 00 00    	jne    106b10 <_ZN15crossbeam_queue11array_queue19ArrayQueue$LT$T$GT$4push17h02a0b324f460f0c8E+0x140>
  106a54:	0f ae f0             	mfence
  106a57:	48 8b 07             	mov    (%rdi),%rax
  106a5a:	48 03 87 10 01 00 00 	add    0x110(%rdi),%rax
  106a61:	48 39 c8             	cmp    %rcx,%rax
  106a64:	0f 84 35 01 00 00    	je     106b9f <_ZN15crossbeam_queue11array_queue19ArrayQueue$LT$T$GT$4push17h02a0b324f460f0c8E+0x1cf>
  106a6a:	41 83 f8 06          	cmp    $0x6,%r8d
  106a6e:	b9 06 00 00 00       	mov    $0x6,%ecx
  106a73:	41 0f 42 c8          	cmovb  %r8d,%ecx
  106a77:	b8 01 00 00 00       	mov    $0x1,%eax
  106a7c:	0f 1f 40 00          	nopl   0x0(%rax)
  106a80:	f3 90                	pause
  106a82:	41 89 c1             	mov    %eax,%r9d
  106a85:	41 d3 e9             	shr    %cl,%r9d
  106a88:	ff c0                	inc    %eax
  106a8a:	45 85 c9             	test   %r9d,%r9d
  106a8d:	74 f1                	je     106a80 <_ZN15crossbeam_queue11array_queue19ArrayQueue$LT$T$GT$4push17h02a0b324f460f0c8E+0xb0>
  106a8f:	41 83 f8 07          	cmp    $0x7,%r8d
  106a93:	41 83 d0 00          	adc    $0x0,%r8d
  106a97:	48 8b 8f 80 00 00 00 	mov    0x80(%rdi),%rcx
  106a9e:	e9 49 ff ff ff       	jmp    1069ec <_ZN15crossbeam_queue11array_queue19ArrayQueue$LT$T$GT$4push17h02a0b324f460f0c8E+0x1c>
  106aa3:	66 66 66 66 2e 0f 1f 	data16 data16 data16 cs nopw 0x0(%rax,%rax,1)
  106aaa:	84 00 00 00 00 00 
  106ab0:	49 f7 db             	neg    %r11
  106ab3:	49 21 cb             	and    %rcx,%r11
  106ab6:	4c 03 9f 10 01 00 00 	add    0x110(%rdi),%r11
  106abd:	48 89 c8             	mov    %rcx,%rax
  106ac0:	f0 4c 0f b1 9f 80 00 	lock cmpxchg %r11,0x80(%rdi)
  106ac7:	00 00 
  106ac9:	0f 84 bc 00 00 00    	je     106b8b <_ZN15crossbeam_queue11array_queue19ArrayQueue$LT$T$GT$4push17h02a0b324f460f0c8E+0x1bb>
  106acf:	41 83 f8 06          	cmp    $0x6,%r8d
  106ad3:	b9 06 00 00 00       	mov    $0x6,%ecx
  106ad8:	41 0f 42 c8          	cmovb  %r8d,%ecx
  106adc:	41 b9 01 00 00 00    	mov    $0x1,%r9d
  106ae2:	66 66 66 66 66 2e 0f 	data16 data16 data16 data16 cs nopw 0x0(%rax,%rax,1)
  106ae9:	1f 84 00 00 00 00 00 
  106af0:	f3 90                	pause
  106af2:	45 89 ca             	mov    %r9d,%r10d
  106af5:	41 d3 ea             	shr    %cl,%r10d
  106af8:	41 ff c1             	inc    %r9d
  106afb:	45 85 d2             	test   %r10d,%r10d
  106afe:	74 f0                	je     106af0 <_ZN15crossbeam_queue11array_queue19ArrayQueue$LT$T$GT$4push17h02a0b324f460f0c8E+0x120>
  106b00:	41 83 f8 07          	cmp    $0x7,%r8d
  106b04:	41 83 d0 00          	adc    $0x0,%r8d
  106b08:	48 89 c1             	mov    %rax,%rcx
  106b0b:	e9 dc fe ff ff       	jmp    1069ec <_ZN15crossbeam_queue11array_queue19ArrayQueue$LT$T$GT$4push17h02a0b324f460f0c8E+0x1c>
  106b10:	41 83 f8 06          	cmp    $0x6,%r8d
  106b14:	77 21                	ja     106b37 <_ZN15crossbeam_queue11array_queue19ArrayQueue$LT$T$GT$4push17h02a0b324f460f0c8E+0x167>
  106b16:	b8 01 00 00 00       	mov    $0x1,%eax
  106b1b:	0f 1f 44 00 00       	nopl   0x0(%rax,%rax,1)
  106b20:	f3 90                	pause
  106b22:	41 89 c1             	mov    %eax,%r9d
  106b25:	44 89 c1             	mov    %r8d,%ecx
  106b28:	41 d3 e9             	shr    %cl,%r9d
  106b2b:	ff c0                	inc    %eax
  106b2d:	45 85 c9             	test   %r9d,%r9d
  106b30:	74 ee                	je     106b20 <_ZN15crossbeam_queue11array_queue19ArrayQueue$LT$T$GT$4push17h02a0b324f460f0c8E+0x150>
  106b32:	e9 a6 fe ff ff       	jmp    1069dd <_ZN15crossbeam_queue11array_queue19ArrayQueue$LT$T$GT$4push17h02a0b324f460f0c8E+0xd>
  106b37:	44 89 c1             	mov    %r8d,%ecx
  106b3a:	83 e1 1f             	and    $0x1f,%ecx
  106b3d:	83 f9 1f             	cmp    $0x1f,%ecx
  106b40:	0f 84 9f fe ff ff    	je     1069e5 <_ZN15crossbeam_queue11array_queue19ArrayQueue$LT$T$GT$4push17h02a0b324f460f0c8E+0x15>
  106b46:	b8 01 00 00 00       	mov    $0x1,%eax
  106b4b:	d3 e0                	shl    %cl,%eax
  106b4d:	8d 48 ff             	lea    -0x1(%rax),%ecx
  106b50:	83 f9 07             	cmp    $0x7,%ecx
  106b53:	72 20                	jb     106b75 <_ZN15crossbeam_queue11array_queue19ArrayQueue$LT$T$GT$4push17h02a0b324f460f0c8E+0x1a5>
  106b55:	89 c1                	mov    %eax,%ecx
  106b57:	83 e1 f8             	and    $0xfffffff8,%ecx
  106b5a:	66 0f 1f 44 00 00    	nopw   0x0(%rax,%rax,1)
  106b60:	f3 90                	pause
  106b62:	f3 90                	pause
  106b64:	f3 90                	pause
  106b66:	f3 90                	pause
  106b68:	f3 90                	pause
  106b6a:	f3 90                	pause
  106b6c:	f3 90                	pause
  106b6e:	f3 90                	pause
  106b70:	83 c1 f8             	add    $0xfffffff8,%ecx
  106b73:	75 eb                	jne    106b60 <_ZN15crossbeam_queue11array_queue19ArrayQueue$LT$T$GT$4push17h02a0b324f460f0c8E+0x190>
  106b75:	83 e0 07             	and    $0x7,%eax
  106b78:	0f 84 5f fe ff ff    	je     1069dd <_ZN15crossbeam_queue11array_queue19ArrayQueue$LT$T$GT$4push17h02a0b324f460f0c8E+0xd>
  106b7e:	66 90                	xchg   %ax,%ax
  106b80:	f3 90                	pause
  106b82:	ff c8                	dec    %eax
  106b84:	75 fa                	jne    106b80 <_ZN15crossbeam_queue11array_queue19ArrayQueue$LT$T$GT$4push17h02a0b324f460f0c8E+0x1b0>
  106b86:	e9 52 fe ff ff       	jmp    1069dd <_ZN15crossbeam_queue11array_queue19ArrayQueue$LT$T$GT$4push17h02a0b324f460f0c8E+0xd>
  106b8b:	4b 8d 04 d1          	lea    (%r9,%r10,8),%rax
  106b8f:	48 89 30             	mov    %rsi,(%rax)
  106b92:	48 89 50 08          	mov    %rdx,0x8(%rax)
  106b96:	48 ff c1             	inc    %rcx
  106b99:	48 89 48 10          	mov    %rcx,0x10(%rax)
  106b9d:	31 f6                	xor    %esi,%esi
  106b9f:	48 89 f0             	mov    %rsi,%rax
  106ba2:	5b                   	pop    %rbx
  106ba3:	c3                   	ret
  106ba4:	66 2e 0f 1f 84 00 00 	cs nopw 0x0(%rax,%rax,1)
  106bab:	00 00 00 
  106bae:	66 90                	xchg   %ax,%ax

0000000000106bb0 <_ZN9nothingos6driver5timer9next_tick17hd1ada971b7dd8542E>:
  106bb0:	b8 01 00 00 00       	mov    $0x1,%eax
  106bb5:	f0 48 0f c1 05 6a 1f 	lock xadd %rax,0x11f6a(%rip)        # 118b28 <_ZN9nothingos6driver5timer9next_tick9NEXT_TICK17he056e455616d8636E>
  106bbc:	01 00 
  106bbe:	c3                   	ret
  106bbf:	90                   	nop

0000000000106bc0 <_ZN83_$LT$nothingos..driver..timer..NextTick$u20$as$u20$core..future..future..Future$GT$4poll17h6e8b4a32b680f1eeE>:
  106bc0:	53                   	push   %rbx
  106bc1:	48 89 fb             	mov    %rdi,%rbx
  106bc4:	48 8b 36             	mov    (%rsi),%rsi
  106bc7:	48 8d 3d 92 64 01 00 	lea    0x16492(%rip),%rdi        # 11d060 <_ZN9nothingos6driver5timer5WAKER17h8489a34b50f44a2bE.llvm.13945740865824956965>
  106bce:	e8 dd c0 00 00       	call   112cb0 <_ZN12futures_core4task10__internal12atomic_waker11AtomicWaker8register17h51df104f50ad5774E>
  106bd3:	48 8b 05 7e 64 01 00 	mov    0x1647e(%rip),%rax        # 11d058 <_ZN9nothingos6driver5timer5TICKS17h4a1d4e253c45dbc8E.llvm.13945740865824956965>
  106bda:	48 8b 13             	mov    (%rbx),%rdx
  106bdd:	48 39 c2             	cmp    %rax,%rdx
  106be0:	73 0a                	jae    106bec <_ZN83_$LT$nothingos..driver..timer..NextTick$u20$as$u20$core..future..future..Future$GT$4poll17h6e8b4a32b680f1eeE+0x2c>
  106be2:	48 ff c2             	inc    %rdx
  106be5:	48 89 13             	mov    %rdx,(%rbx)
  106be8:	31 c0                	xor    %eax,%eax
  106bea:	5b                   	pop    %rbx
  106beb:	c3                   	ret
  106bec:	b8 01 00 00 00       	mov    $0x1,%eax
  106bf1:	5b                   	pop    %rbx
  106bf2:	c3                   	ret
  106bf3:	66 2e 0f 1f 84 00 00 	cs nopw 0x0(%rax,%rax,1)
  106bfa:	00 00 00 
  106bfd:	0f 1f 00             	nopl   (%rax)

0000000000106c00 <_ZN12conquer_once4cell21OnceCell$LT$T$C$B$GT$13try_init_once28_$u7b$$u7b$closure$u7d$$u7d$17h01bb2e29a698d37dE.llvm.2016506120432514712>:
  106c00:	55                   	push   %rbp
  106c01:	41 56                	push   %r14
  106c03:	53                   	push   %rbx
  106c04:	48 81 ec b0 0f 00 00 	sub    $0xfb0,%rsp
  106c0b:	48 8b 36             	mov    (%rsi),%rsi
  106c0e:	48 8b 16             	mov    (%rsi),%rdx
  106c11:	48 8b 46 08          	mov    0x8(%rsi),%rax
  106c15:	48 8b 4e 10          	mov    0x10(%rsi),%rcx
  106c19:	48 c7 06 00 00 00 00 	movq   $0x0,(%rsi)
  106c20:	48 85 d2             	test   %rdx,%rdx
  106c23:	74 68                	je     106c8d <_ZN12conquer_once4cell21OnceCell$LT$T$C$B$GT$13try_init_once28_$u7b$$u7b$closure$u7d$$u7d$17h01bb2e29a698d37dE.llvm.2016506120432514712+0x8d>
  106c25:	4c 8b 32             	mov    (%rdx),%r14
  106c28:	4c 89 f2             	mov    %r14,%rdx
  106c2b:	48 c1 ea 34          	shr    $0x34,%rdx
  106c2f:	75 68                	jne    106c99 <_ZN12conquer_once4cell21OnceCell$LT$T$C$B$GT$13try_init_once28_$u7b$$u7b$closure$u7d$$u7d$17h01bb2e29a698d37dE.llvm.2016506120432514712+0x99>
  106c31:	48 89 fb             	mov    %rdi,%rbx
  106c34:	0f b6 29             	movzbl (%rcx),%ebp
  106c37:	40 c0 e5 04          	shl    $0x4,%bpl
  106c3b:	40 02 28             	add    (%rax),%bpl
  106c3e:	48 8d 7c 24 10       	lea    0x10(%rsp),%rdi
  106c43:	ba a0 0f 00 00       	mov    $0xfa0,%edx
  106c48:	31 f6                	xor    %esi,%esi
  106c4a:	e8 d1 01 01 00       	call   116e20 <memset>
  106c4f:	c6 03 00             	movb   $0x0,(%rbx)
  106c52:	48 8d 7b 01          	lea    0x1(%rbx),%rdi
  106c56:	48 8d 74 24 09       	lea    0x9(%rsp),%rsi
  106c5b:	ba a7 0f 00 00       	mov    $0xfa7,%edx
  106c60:	e8 8b 01 01 00       	call   116df0 <memcpy>
  106c65:	4c 89 b3 a8 0f 00 00 	mov    %r14,0xfa8(%rbx)
  106c6c:	48 c7 83 b0 0f 00 00 	movq   $0x0,0xfb0(%rbx)
  106c73:	00 00 00 00 
  106c77:	40 88 ab b8 0f 00 00 	mov    %bpl,0xfb8(%rbx)
  106c7e:	48 89 d8             	mov    %rbx,%rax
  106c81:	48 81 c4 b0 0f 00 00 	add    $0xfb0,%rsp
  106c88:	5b                   	pop    %rbx
  106c89:	41 5e                	pop    %r14
  106c8b:	5d                   	pop    %rbp
  106c8c:	c3                   	ret
  106c8d:	48 8d 3d 3c 1f 01 00 	lea    0x11f3c(%rip),%rdi        # 118bd0 <anon.f0f206d330590b1ac1316bbbe74444df.5.llvm.2016506120432514712+0x28>
  106c94:	e8 37 00 01 00       	call   116cd0 <_ZN4core6option13unwrap_failed17he52d730686d7539bE>
  106c99:	48 8d 3d fb a1 ff ff 	lea    -0x5e05(%rip),%rdi        # 100e9b <anon.f0f206d330590b1ac1316bbbe74444df.28.llvm.2016506120432514712+0x74>
  106ca0:	48 8d 15 c1 32 01 00 	lea    0x132c1(%rip),%rdx        # 119f68 <_ZN9nothingos5print6DRIVER17he9844281a3b4baacE+0x1028>
  106ca7:	be 43 00 00 00       	mov    $0x43,%esi
  106cac:	e8 0f e8 00 00       	call   1154c0 <_ZN4core9panicking5panic17ha6ab4147e8d76f59E>
  106cb1:	66 2e 0f 1f 84 00 00 	cs nopw 0x0(%rax,%rax,1)
  106cb8:	00 00 00 
  106cbb:	0f 1f 44 00 00       	nopl   0x0(%rax,%rax,1)

0000000000106cc0 <_ZN12conquer_once4cell21OnceCell$LT$T$C$B$GT$13try_init_once28_$u7b$$u7b$closure$u7d$$u7d$17h6dea25ac000c4fa9E.llvm.2016506120432514712>:
  106cc0:	53                   	push   %rbx
  106cc1:	48 8b 06             	mov    (%rsi),%rax
  106cc4:	80 38 00             	cmpb   $0x0,(%rax)
  106cc7:	c6 00 00             	movb   $0x0,(%rax)
  106cca:	0f 84 a5 00 00 00    	je     106d75 <_ZN12conquer_once4cell21OnceCell$LT$T$C$B$GT$13try_init_once28_$u7b$$u7b$closure$u7d$$u7d$17h6dea25ac000c4fa9E.llvm.2016506120432514712+0xb5>
  106cd0:	48 89 fb             	mov    %rdi,%rbx
  106cd3:	48 8d 05 27 53 01 00 	lea    0x15327(%rip),%rax        # 11c001 <__rust_no_alloc_shim_is_unstable>
  106cda:	0f b6 00             	movzbl (%rax),%eax
  106cdd:	48 8d 3d 24 53 01 00 	lea    0x15324(%rip),%rdi        # 11c008 <_ZN9nothingos9allocator16GLOBAL_ALLOCATOR17hf60b19268c11c607E.llvm.10293348477465442824>
  106ce4:	be 08 00 00 00       	mov    $0x8,%esi
  106ce9:	ba 40 06 00 00       	mov    $0x640,%edx
  106cee:	e8 ad e3 ff ff       	call   1050a0 <_ZN143_$LT$nothingos..allocator..Locked$LT$nothingos..allocator..linked_list..LinkedListAllocator$GT$$u20$as$u20$core..alloc..global..GlobalAlloc$GT$5alloc17h66850a7ae96c4e58E>
  106cf3:	48 85 c0             	test   %rax,%rax
  106cf6:	0f 84 85 00 00 00    	je     106d81 <_ZN12conquer_once4cell21OnceCell$LT$T$C$B$GT$13try_init_once28_$u7b$$u7b$closure$u7d$$u7d$17h6dea25ac000c4fa9E.llvm.2016506120432514712+0xc1>
  106cfc:	48 89 c1             	mov    %rax,%rcx
  106cff:	48 83 c1 40          	add    $0x40,%rcx
  106d03:	31 d2                	xor    %edx,%edx
  106d05:	66 66 2e 0f 1f 84 00 	data16 cs nopw 0x0(%rax,%rax,1)
  106d0c:	00 00 00 00 
  106d10:	48 89 51 c0          	mov    %rdx,-0x40(%rcx)
  106d14:	48 8d 72 01          	lea    0x1(%rdx),%rsi
  106d18:	48 89 71 d0          	mov    %rsi,-0x30(%rcx)
  106d1c:	48 8d 72 02          	lea    0x2(%rdx),%rsi
  106d20:	48 89 71 e0          	mov    %rsi,-0x20(%rcx)
  106d24:	48 8d 72 03          	lea    0x3(%rdx),%rsi
  106d28:	48 89 71 f0          	mov    %rsi,-0x10(%rcx)
  106d2c:	48 8d 72 04          	lea    0x4(%rdx),%rsi
  106d30:	48 89 31             	mov    %rsi,(%rcx)
  106d33:	48 83 c1 50          	add    $0x50,%rcx
  106d37:	48 83 c2 05          	add    $0x5,%rdx
  106d3b:	48 83 fa 64          	cmp    $0x64,%rdx
  106d3f:	75 cf                	jne    106d10 <_ZN12conquer_once4cell21OnceCell$LT$T$C$B$GT$13try_init_once28_$u7b$$u7b$closure$u7d$$u7d$17h6dea25ac000c4fa9E.llvm.2016506120432514712+0x50>
  106d41:	48 c7 03 00 00 00 00 	movq   $0x0,(%rbx)
  106d48:	48 c7 83 80 00 00 00 	movq   $0x0,0x80(%rbx)
  106d4f:	00 00 00 00 
  106d53:	48 89 83 00 01 00 00 	mov    %rax,0x100(%rbx)
  106d5a:	48 c7 83 08 01 00 00 	movq   $0x64,0x108(%rbx)
  106d61:	64 00 00 00 
  106d65:	48 c7 83 10 01 00 00 	movq   $0x80,0x110(%rbx)
  106d6c:	80 00 00 00 
  106d70:	48 89 d8             	mov    %rbx,%rax
  106d73:	5b                   	pop    %rbx
  106d74:	c3                   	ret
  106d75:	48 8d 3d 54 1e 01 00 	lea    0x11e54(%rip),%rdi        # 118bd0 <anon.f0f206d330590b1ac1316bbbe74444df.5.llvm.2016506120432514712+0x28>
  106d7c:	e8 4f ff 00 00       	call   116cd0 <_ZN4core6option13unwrap_failed17he52d730686d7539bE>
  106d81:	bf 08 00 00 00       	mov    $0x8,%edi
  106d86:	be 40 06 00 00       	mov    $0x640,%esi
  106d8b:	e8 d0 c7 00 00       	call   113560 <_ZN5alloc5alloc18handle_alloc_error17hb028c0b596ed5966E>

0000000000106d90 <_ZN4core3ops8function6FnOnce40call_once$u7b$$u7b$vtable.shim$u7d$$u7d$17h3ef6ea29a7bc8fbaE.llvm.2016506120432514712>:
  106d90:	53                   	push   %rbx
  106d91:	48 8b 06             	mov    (%rsi),%rax
  106d94:	80 38 00             	cmpb   $0x0,(%rax)
  106d97:	c6 00 00             	movb   $0x0,(%rax)
  106d9a:	0f 84 a5 00 00 00    	je     106e45 <_ZN4core3ops8function6FnOnce40call_once$u7b$$u7b$vtable.shim$u7d$$u7d$17h3ef6ea29a7bc8fbaE.llvm.2016506120432514712+0xb5>
  106da0:	48 89 fb             	mov    %rdi,%rbx
  106da3:	48 8d 05 57 52 01 00 	lea    0x15257(%rip),%rax        # 11c001 <__rust_no_alloc_shim_is_unstable>
  106daa:	0f b6 00             	movzbl (%rax),%eax
  106dad:	48 8d 3d 54 52 01 00 	lea    0x15254(%rip),%rdi        # 11c008 <_ZN9nothingos9allocator16GLOBAL_ALLOCATOR17hf60b19268c11c607E.llvm.10293348477465442824>
  106db4:	be 08 00 00 00       	mov    $0x8,%esi
  106db9:	ba 40 06 00 00       	mov    $0x640,%edx
  106dbe:	e8 dd e2 ff ff       	call   1050a0 <_ZN143_$LT$nothingos..allocator..Locked$LT$nothingos..allocator..linked_list..LinkedListAllocator$GT$$u20$as$u20$core..alloc..global..GlobalAlloc$GT$5alloc17h66850a7ae96c4e58E>
  106dc3:	48 85 c0             	test   %rax,%rax
  106dc6:	0f 84 85 00 00 00    	je     106e51 <_ZN4core3ops8function6FnOnce40call_once$u7b$$u7b$vtable.shim$u7d$$u7d$17h3ef6ea29a7bc8fbaE.llvm.2016506120432514712+0xc1>
  106dcc:	48 89 c1             	mov    %rax,%rcx
  106dcf:	48 83 c1 40          	add    $0x40,%rcx
  106dd3:	31 d2                	xor    %edx,%edx
  106dd5:	66 66 2e 0f 1f 84 00 	data16 cs nopw 0x0(%rax,%rax,1)
  106ddc:	00 00 00 00 
  106de0:	48 89 51 c0          	mov    %rdx,-0x40(%rcx)
  106de4:	48 8d 72 01          	lea    0x1(%rdx),%rsi
  106de8:	48 89 71 d0          	mov    %rsi,-0x30(%rcx)
  106dec:	48 8d 72 02          	lea    0x2(%rdx),%rsi
  106df0:	48 89 71 e0          	mov    %rsi,-0x20(%rcx)
  106df4:	48 8d 72 03          	lea    0x3(%rdx),%rsi
  106df8:	48 89 71 f0          	mov    %rsi,-0x10(%rcx)
  106dfc:	48 8d 72 04          	lea    0x4(%rdx),%rsi
  106e00:	48 89 31             	mov    %rsi,(%rcx)
  106e03:	48 83 c1 50          	add    $0x50,%rcx
  106e07:	48 83 c2 05          	add    $0x5,%rdx
  106e0b:	48 83 fa 64          	cmp    $0x64,%rdx
  106e0f:	75 cf                	jne    106de0 <_ZN4core3ops8function6FnOnce40call_once$u7b$$u7b$vtable.shim$u7d$$u7d$17h3ef6ea29a7bc8fbaE.llvm.2016506120432514712+0x50>
  106e11:	48 c7 03 00 00 00 00 	movq   $0x0,(%rbx)
  106e18:	48 c7 83 80 00 00 00 	movq   $0x0,0x80(%rbx)
  106e1f:	00 00 00 00 
  106e23:	48 89 83 00 01 00 00 	mov    %rax,0x100(%rbx)
  106e2a:	48 c7 83 08 01 00 00 	movq   $0x64,0x108(%rbx)
  106e31:	64 00 00 00 
  106e35:	48 c7 83 10 01 00 00 	movq   $0x80,0x110(%rbx)
  106e3c:	80 00 00 00 
  106e40:	48 89 d8             	mov    %rbx,%rax
  106e43:	5b                   	pop    %rbx
  106e44:	c3                   	ret
  106e45:	48 8d 3d 84 1d 01 00 	lea    0x11d84(%rip),%rdi        # 118bd0 <anon.f0f206d330590b1ac1316bbbe74444df.5.llvm.2016506120432514712+0x28>
  106e4c:	e8 7f fe 00 00       	call   116cd0 <_ZN4core6option13unwrap_failed17he52d730686d7539bE>
  106e51:	bf 08 00 00 00       	mov    $0x8,%edi
  106e56:	be 40 06 00 00       	mov    $0x640,%esi
  106e5b:	e8 00 c7 00 00       	call   113560 <_ZN5alloc5alloc18handle_alloc_error17hb028c0b596ed5966E>

0000000000106e60 <_ZN4core3ops8function6FnOnce40call_once$u7b$$u7b$vtable.shim$u7d$$u7d$17hd433521da73313f1E.llvm.2016506120432514712>:
  106e60:	55                   	push   %rbp
  106e61:	41 56                	push   %r14
  106e63:	53                   	push   %rbx
  106e64:	48 81 ec b0 0f 00 00 	sub    $0xfb0,%rsp
  106e6b:	48 8b 36             	mov    (%rsi),%rsi
  106e6e:	48 8b 16             	mov    (%rsi),%rdx
  106e71:	48 8b 46 08          	mov    0x8(%rsi),%rax
  106e75:	48 8b 4e 10          	mov    0x10(%rsi),%rcx
  106e79:	48 c7 06 00 00 00 00 	movq   $0x0,(%rsi)
  106e80:	48 85 d2             	test   %rdx,%rdx
  106e83:	74 68                	je     106eed <_ZN4core3ops8function6FnOnce40call_once$u7b$$u7b$vtable.shim$u7d$$u7d$17hd433521da73313f1E.llvm.2016506120432514712+0x8d>
  106e85:	4c 8b 32             	mov    (%rdx),%r14
  106e88:	4c 89 f2             	mov    %r14,%rdx
  106e8b:	48 c1 ea 34          	shr    $0x34,%rdx
  106e8f:	75 68                	jne    106ef9 <_ZN4core3ops8function6FnOnce40call_once$u7b$$u7b$vtable.shim$u7d$$u7d$17hd433521da73313f1E.llvm.2016506120432514712+0x99>
  106e91:	48 89 fb             	mov    %rdi,%rbx
  106e94:	0f b6 29             	movzbl (%rcx),%ebp
  106e97:	40 c0 e5 04          	shl    $0x4,%bpl
  106e9b:	40 02 28             	add    (%rax),%bpl
  106e9e:	48 8d 7c 24 10       	lea    0x10(%rsp),%rdi
  106ea3:	ba a0 0f 00 00       	mov    $0xfa0,%edx
  106ea8:	31 f6                	xor    %esi,%esi
  106eaa:	e8 71 ff 00 00       	call   116e20 <memset>
  106eaf:	c6 03 00             	movb   $0x0,(%rbx)
  106eb2:	48 8d 7b 01          	lea    0x1(%rbx),%rdi
  106eb6:	48 8d 74 24 09       	lea    0x9(%rsp),%rsi
  106ebb:	ba a7 0f 00 00       	mov    $0xfa7,%edx
  106ec0:	e8 2b ff 00 00       	call   116df0 <memcpy>
  106ec5:	4c 89 b3 a8 0f 00 00 	mov    %r14,0xfa8(%rbx)
  106ecc:	48 c7 83 b0 0f 00 00 	movq   $0x0,0xfb0(%rbx)
  106ed3:	00 00 00 00 
  106ed7:	40 88 ab b8 0f 00 00 	mov    %bpl,0xfb8(%rbx)
  106ede:	48 89 d8             	mov    %rbx,%rax
  106ee1:	48 81 c4 b0 0f 00 00 	add    $0xfb0,%rsp
  106ee8:	5b                   	pop    %rbx
  106ee9:	41 5e                	pop    %r14
  106eeb:	5d                   	pop    %rbp
  106eec:	c3                   	ret
  106eed:	48 8d 3d dc 1c 01 00 	lea    0x11cdc(%rip),%rdi        # 118bd0 <anon.f0f206d330590b1ac1316bbbe74444df.5.llvm.2016506120432514712+0x28>
  106ef4:	e8 d7 fd 00 00       	call   116cd0 <_ZN4core6option13unwrap_failed17he52d730686d7539bE>
  106ef9:	48 8d 3d 9b 9f ff ff 	lea    -0x6065(%rip),%rdi        # 100e9b <anon.f0f206d330590b1ac1316bbbe74444df.28.llvm.2016506120432514712+0x74>
  106f00:	48 8d 15 61 30 01 00 	lea    0x13061(%rip),%rdx        # 119f68 <_ZN9nothingos5print6DRIVER17he9844281a3b4baacE+0x1028>
  106f07:	be 43 00 00 00       	mov    $0x43,%esi
  106f0c:	e8 af e5 00 00       	call   1154c0 <_ZN4core9panicking5panic17ha6ab4147e8d76f59E>
  106f11:	66 2e 0f 1f 84 00 00 	cs nopw 0x0(%rax,%rax,1)
  106f18:	00 00 00 
  106f1b:	0f 1f 44 00 00       	nopl   0x0(%rax,%rax,1)

0000000000106f20 <_ZN4core3ptr246drop_in_place$LT$conquer_once..cell..OnceCell$LT$spin..mutex..Mutex$LT$nothingos..print..Print$GT$$C$conquer_once..spin..internal..Spin$GT$..try_init_once$LT$nothingos..print..init..$u7b$$u7b$closure$u7d$$u7d$$GT$..$u7b$$u7b$closure$u7d$$u7d$$GT$17ha8c8a382184b9cceE.llvm.2016506120432514712>:
  106f20:	c3                   	ret
  106f21:	66 2e 0f 1f 84 00 00 	cs nopw 0x0(%rax,%rax,1)
  106f28:	00 00 00 
  106f2b:	0f 1f 44 00 00       	nopl   0x0(%rax,%rax,1)

0000000000106f30 <_ZN4core3ptr49drop_in_place$LT$uart_16550..port..SerialPort$GT$17hf7c95cc13fcdcb4aE>:
  106f30:	c3                   	ret
  106f31:	66 2e 0f 1f 84 00 00 	cs nopw 0x0(%rax,%rax,1)
  106f38:	00 00 00 
  106f3b:	0f 1f 44 00 00       	nopl   0x0(%rax,%rax,1)

0000000000106f40 <_ZN4core3ptr53drop_in_place$LT$conquer_once..cell..TryInitError$GT$17h9ce814edc5c2d9acE.llvm.2016506120432514712>:
  106f40:	c3                   	ret
  106f41:	66 2e 0f 1f 84 00 00 	cs nopw 0x0(%rax,%rax,1)
  106f48:	00 00 00 
  106f4b:	0f 1f 44 00 00       	nopl   0x0(%rax,%rax,1)

0000000000106f50 <_ZN4core3ptr53drop_in_place$LT$conquer_once..state..PoisonError$GT$17ha9f58fc10da553fbE.llvm.2016506120432514712>:
  106f50:	c3                   	ret
  106f51:	66 2e 0f 1f 84 00 00 	cs nopw 0x0(%rax,%rax,1)
  106f58:	00 00 00 
  106f5b:	0f 1f 44 00 00       	nopl   0x0(%rax,%rax,1)

0000000000106f60 <_ZN53_$LT$core..fmt..Error$u20$as$u20$core..fmt..Debug$GT$3fmt17hd1558d5fae9db22dE>:
  106f60:	48 89 f7             	mov    %rsi,%rdi
  106f63:	48 8d 35 be 9d ff ff 	lea    -0x6242(%rip),%rsi        # 100d28 <anon.f0f206d330590b1ac1316bbbe74444df.10.llvm.2016506120432514712>
  106f6a:	ba 05 00 00 00       	mov    $0x5,%edx
  106f6f:	e9 0c d4 00 00       	jmp    114380 <_ZN4core3fmt9Formatter9write_str17h8eb588591b035279E>
  106f74:	66 2e 0f 1f 84 00 00 	cs nopw 0x0(%rax,%rax,1)
  106f7b:	00 00 00 
  106f7e:	66 90                	xchg   %ax,%ax

0000000000106f80 <_ZN68_$LT$conquer_once..cell..TryGetError$u20$as$u20$core..fmt..Debug$GT$3fmt17h3478f1eb6b505e71E>:
  106f80:	48 89 f0             	mov    %rsi,%rax
  106f83:	0f b6 0f             	movzbl (%rdi),%ecx
  106f86:	85 c9                	test   %ecx,%ecx
  106f88:	48 8d 15 9e 9d ff ff 	lea    -0x6262(%rip),%rdx        # 100d2d <anon.f0f206d330590b1ac1316bbbe74444df.10.llvm.2016506120432514712+0x5>
  106f8f:	48 8d 35 9d 9d ff ff 	lea    -0x6263(%rip),%rsi        # 100d33 <anon.f0f206d330590b1ac1316bbbe74444df.10.llvm.2016506120432514712+0xb>
  106f96:	48 0f 44 f2          	cmove  %rdx,%rsi
  106f9a:	48 8d 14 8d 06 00 00 	lea    0x6(,%rcx,4),%rdx
  106fa1:	00 
  106fa2:	48 89 c7             	mov    %rax,%rdi
  106fa5:	e9 d6 d3 00 00       	jmp    114380 <_ZN4core3fmt9Formatter9write_str17h8eb588591b035279E>
  106faa:	66 0f 1f 44 00 00    	nopw   0x0(%rax,%rax,1)

0000000000106fb0 <_ZN69_$LT$conquer_once..cell..TryInitError$u20$as$u20$core..fmt..Debug$GT$3fmt17hc15e28de4b3ca349E.llvm.2016506120432514712>:
  106fb0:	48 89 f0             	mov    %rsi,%rax
  106fb3:	31 d2                	xor    %edx,%edx
  106fb5:	80 3f 00             	cmpb   $0x0,(%rdi)
  106fb8:	0f 94 c2             	sete   %dl
  106fbb:	48 8d 0d 7b 9d ff ff 	lea    -0x6285(%rip),%rcx        # 100d3d <anon.f0f206d330590b1ac1316bbbe74444df.10.llvm.2016506120432514712+0x15>
  106fc2:	48 8d 35 6a 9d ff ff 	lea    -0x6296(%rip),%rsi        # 100d33 <anon.f0f206d330590b1ac1316bbbe74444df.10.llvm.2016506120432514712+0xb>
  106fc9:	48 0f 44 f1          	cmove  %rcx,%rsi
  106fcd:	48 83 ca 0a          	or     $0xa,%rdx
  106fd1:	48 89 c7             	mov    %rax,%rdi
  106fd4:	e9 a7 d3 00 00       	jmp    114380 <_ZN4core3fmt9Formatter9write_str17h8eb588591b035279E>
  106fd9:	0f 1f 80 00 00 00 00 	nopl   0x0(%rax)

0000000000106fe0 <_ZN69_$LT$conquer_once..state..PoisonError$u20$as$u20$core..fmt..Debug$GT$3fmt17hd653e451986b7aa6E.llvm.2016506120432514712>:
  106fe0:	48 89 f7             	mov    %rsi,%rdi
  106fe3:	48 8d 35 5e 9d ff ff 	lea    -0x62a2(%rip),%rsi        # 100d48 <anon.f0f206d330590b1ac1316bbbe74444df.10.llvm.2016506120432514712+0x20>
  106fea:	ba 0b 00 00 00       	mov    $0xb,%edx
  106fef:	e9 8c d3 00 00       	jmp    114380 <_ZN4core3fmt9Formatter9write_str17h8eb588591b035279E>
  106ff4:	66 2e 0f 1f 84 00 00 	cs nopw 0x0(%rax,%rax,1)
  106ffb:	00 00 00 
  106ffe:	66 90                	xchg   %ax,%ax

0000000000107000 <_ZN90_$LT$nothingos..driver..keyboard..NextScancode$u20$as$u20$core..future..future..Future$GT$4poll17hbc543aca345a49d6E>:
  107000:	53                   	push   %rbx
  107001:	48 83 ec 10          	sub    $0x10,%rsp
  107005:	48 8b 05 f4 1d 01 00 	mov    0x11df4(%rip),%rax        # 118e00 <_ZN9nothingos6driver8keyboard14SCANCODE_QUEUE17hd78788b6015e1dd0E.llvm.2016506120432514712+0x180>
  10700c:	48 83 f8 02          	cmp    $0x2,%rax
  107010:	75 3c                	jne    10704e <_ZN90_$LT$nothingos..driver..keyboard..NextScancode$u20$as$u20$core..future..future..Future$GT$4poll17hbc543aca345a49d6E+0x4e>
  107012:	48 89 f3             	mov    %rsi,%rbx
  107015:	48 8d 3d 64 1c 01 00 	lea    0x11c64(%rip),%rdi        # 118c80 <_ZN9nothingos6driver8keyboard14SCANCODE_QUEUE17hd78788b6015e1dd0E.llvm.2016506120432514712>
  10701c:	e8 1f f8 ff ff       	call   106840 <_ZN15crossbeam_queue11array_queue19ArrayQueue$LT$T$GT$3pop17h6e57219148aba380E>
  107021:	a8 01                	test   $0x1,%al
  107023:	74 21                	je     107046 <_ZN90_$LT$nothingos..driver..keyboard..NextScancode$u20$as$u20$core..future..future..Future$GT$4poll17hbc543aca345a49d6E+0x46>
  107025:	48 8b 33             	mov    (%rbx),%rsi
  107028:	48 8d 3d 49 60 01 00 	lea    0x16049(%rip),%rdi        # 11d078 <_ZN9nothingos6driver8keyboard5WAKER17h4f4f4e7002114b93E>
  10702f:	e8 7c bc 00 00       	call   112cb0 <_ZN12futures_core4task10__internal12atomic_waker11AtomicWaker8register17h51df104f50ad5774E>
  107034:	48 8d 3d 45 1c 01 00 	lea    0x11c45(%rip),%rdi        # 118c80 <_ZN9nothingos6driver8keyboard14SCANCODE_QUEUE17hd78788b6015e1dd0E.llvm.2016506120432514712>
  10703b:	e8 00 f8 ff ff       	call   106840 <_ZN15crossbeam_queue11array_queue19ArrayQueue$LT$T$GT$3pop17h6e57219148aba380E>
  107040:	48 83 c4 10          	add    $0x10,%rsp
  107044:	5b                   	pop    %rbx
  107045:	c3                   	ret
  107046:	31 c0                	xor    %eax,%eax
  107048:	48 83 c4 10          	add    $0x10,%rsp
  10704c:	5b                   	pop    %rbx
  10704d:	c3                   	ret
  10704e:	48 83 f8 01          	cmp    $0x1,%rax
  107052:	74 2a                	je     10707e <_ZN90_$LT$nothingos..driver..keyboard..NextScancode$u20$as$u20$core..future..future..Future$GT$4poll17hbc543aca345a49d6E+0x7e>
  107054:	48 83 f8 03          	cmp    $0x3,%rax
  107058:	75 28                	jne    107082 <_ZN90_$LT$nothingos..driver..keyboard..NextScancode$u20$as$u20$core..future..future..Future$GT$4poll17hbc543aca345a49d6E+0x82>
  10705a:	48 8d 3d dc 9b ff ff 	lea    -0x6424(%rip),%rdi        # 100c3d <anon.f0f206d330590b1ac1316bbbe74444df.0.llvm.2016506120432514712>
  107061:	48 8d 0d 08 1b 01 00 	lea    0x11b08(%rip),%rcx        # 118b70 <anon.f0f206d330590b1ac1316bbbe74444df.3.llvm.2016506120432514712>
  107068:	4c 8d 05 79 1b 01 00 	lea    0x11b79(%rip),%r8        # 118be8 <anon.f0f206d330590b1ac1316bbbe74444df.5.llvm.2016506120432514712+0x40>
  10706f:	48 8d 54 24 0f       	lea    0xf(%rsp),%rdx
  107074:	be 24 00 00 00       	mov    $0x24,%esi
  107079:	e8 e2 fc 00 00       	call   116d60 <_ZN4core6result13unwrap_failed17hf6308fed240e4aa6E>
  10707e:	31 c0                	xor    %eax,%eax
  107080:	eb 02                	jmp    107084 <_ZN90_$LT$nothingos..driver..keyboard..NextScancode$u20$as$u20$core..future..future..Future$GT$4poll17hbc543aca345a49d6E+0x84>
  107082:	b0 01                	mov    $0x1,%al
  107084:	88 44 24 0e          	mov    %al,0xe(%rsp)
  107088:	48 8d 3d f7 9c ff ff 	lea    -0x6309(%rip),%rdi        # 100d86 <anon.f0f206d330590b1ac1316bbbe74444df.19.llvm.2016506120432514712+0x16>
  10708f:	48 8d 0d 22 1e 01 00 	lea    0x11e22(%rip),%rcx        # 118eb8 <anon.f0f206d330590b1ac1316bbbe74444df.20.llvm.2016506120432514712+0x18>
  107096:	4c 8d 05 3b 1e 01 00 	lea    0x11e3b(%rip),%r8        # 118ed8 <anon.f0f206d330590b1ac1316bbbe74444df.20.llvm.2016506120432514712+0x38>
  10709d:	48 8d 54 24 0e       	lea    0xe(%rsp),%rdx
  1070a2:	be 1e 00 00 00       	mov    $0x1e,%esi
  1070a7:	e8 b4 fc 00 00       	call   116d60 <_ZN4core6result13unwrap_failed17hf6308fed240e4aa6E>
  1070ac:	0f 1f 40 00          	nopl   0x0(%rax)

00000000001070b0 <_ZN9nothingos5print6_print17h4080501cdf937b7dE>:
  1070b0:	9c                   	pushf
  1070b1:	58                   	pop    %rax
  1070b2:	a9 00 02 00 00       	test   $0x200,%eax
  1070b7:	0f 84 13 00 00 00    	je     1070d0 <_ZN9nothingos5print6_print28_$u7b$$u7b$closure$u7d$$u7d$17h775a3a8e0eec56baE.llvm.2016506120432514712>
  1070bd:	50                   	push   %rax
  1070be:	fa                   	cli
  1070bf:	e8 0c 00 00 00       	call   1070d0 <_ZN9nothingos5print6_print28_$u7b$$u7b$closure$u7d$$u7d$17h775a3a8e0eec56baE.llvm.2016506120432514712>
  1070c4:	fb                   	sti
  1070c5:	58                   	pop    %rax
  1070c6:	c3                   	ret
  1070c7:	66 0f 1f 84 00 00 00 	nopw   0x0(%rax,%rax,1)
  1070ce:	00 00 

00000000001070d0 <_ZN9nothingos5print6_print28_$u7b$$u7b$closure$u7d$$u7d$17h775a3a8e0eec56baE.llvm.2016506120432514712>:
  1070d0:	41 56                	push   %r14
  1070d2:	53                   	push   %rbx
  1070d3:	48 83 ec 38          	sub    $0x38,%rsp
  1070d7:	48 89 fb             	mov    %rdi,%rbx
  1070da:	48 8d 05 5f 1e 01 00 	lea    0x11e5f(%rip),%rax        # 118f40 <_ZN9nothingos5print6DRIVER17he9844281a3b4baacE>
  1070e1:	48 8b 88 c0 0f 00 00 	mov    0xfc0(%rax),%rcx
  1070e8:	48 83 f9 02          	cmp    $0x2,%rcx
  1070ec:	74 4c                	je     10713a <_ZN9nothingos5print6_print28_$u7b$$u7b$closure$u7d$$u7d$17h775a3a8e0eec56baE.llvm.2016506120432514712+0x6a>
  1070ee:	48 83 f9 01          	cmp    $0x1,%rcx
  1070f2:	0f 84 e2 00 00 00    	je     1071da <_ZN9nothingos5print6_print28_$u7b$$u7b$closure$u7d$$u7d$17h775a3a8e0eec56baE.llvm.2016506120432514712+0x10a>
  1070f8:	48 83 f9 03          	cmp    $0x3,%rcx
  1070fc:	0f 84 1c 01 00 00    	je     10721e <_ZN9nothingos5print6_print28_$u7b$$u7b$closure$u7d$$u7d$17h775a3a8e0eec56baE.llvm.2016506120432514712+0x14e>
  107102:	66 66 66 66 66 2e 0f 	data16 data16 data16 data16 cs nopw 0x0(%rax,%rax,1)
  107109:	1f 84 00 00 00 00 00 
  107110:	48 8b 88 c0 0f 00 00 	mov    0xfc0(%rax),%rcx
  107117:	48 8d 51 ff          	lea    -0x1(%rcx),%rdx
  10711b:	48 83 fa 02          	cmp    $0x2,%rdx
  10711f:	72 19                	jb     10713a <_ZN9nothingos5print6_print28_$u7b$$u7b$closure$u7d$$u7d$17h775a3a8e0eec56baE.llvm.2016506120432514712+0x6a>
  107121:	48 83 f9 03          	cmp    $0x3,%rcx
  107125:	74 6b                	je     107192 <_ZN9nothingos5print6_print28_$u7b$$u7b$closure$u7d$$u7d$17h775a3a8e0eec56baE.llvm.2016506120432514712+0xc2>
  107127:	f3 90                	pause
  107129:	48 8b 88 c0 0f 00 00 	mov    0xfc0(%rax),%rcx
  107130:	48 8d 51 ff          	lea    -0x1(%rcx),%rdx
  107134:	48 83 fa 02          	cmp    $0x2,%rdx
  107138:	73 e7                	jae    107121 <_ZN9nothingos5print6_print28_$u7b$$u7b$closure$u7d$$u7d$17h775a3a8e0eec56baE.llvm.2016506120432514712+0x51>
  10713a:	48 8d 3d ff 5e 01 00 	lea    0x15eff(%rip),%rdi        # 11d040 <_ZN70_$LT$nothingos..serial..SERIAL1$u20$as$u20$core..ops..deref..Deref$GT$5deref11__stability4LAZY17h3c6cbf1ff5b8c1e4E.llvm.3069385760615976897>
  107141:	e8 4a 7c 00 00       	call   10ed90 <_ZN4spin4once13Once$LT$T$GT$9call_once17hb3b4133881bb3f3bE>
  107146:	49 89 c6             	mov    %rax,%r14
  107149:	b1 01                	mov    $0x1,%cl
  10714b:	0f 1f 44 00 00       	nopl   0x0(%rax,%rax,1)
  107150:	31 c0                	xor    %eax,%eax
  107152:	f0 41 0f b0 0e       	lock cmpxchg %cl,(%r14)
  107157:	75 09                	jne    107162 <_ZN9nothingos5print6_print28_$u7b$$u7b$closure$u7d$$u7d$17h775a3a8e0eec56baE.llvm.2016506120432514712+0x92>
  107159:	eb 11                	jmp    10716c <_ZN9nothingos5print6_print28_$u7b$$u7b$closure$u7d$$u7d$17h775a3a8e0eec56baE.llvm.2016506120432514712+0x9c>
  10715b:	0f 1f 44 00 00       	nopl   0x0(%rax,%rax,1)
  107160:	f3 90                	pause
  107162:	41 0f b6 06          	movzbl (%r14),%eax
  107166:	84 c0                	test   %al,%al
  107168:	75 f6                	jne    107160 <_ZN9nothingos5print6_print28_$u7b$$u7b$closure$u7d$$u7d$17h775a3a8e0eec56baE.llvm.2016506120432514712+0x90>
  10716a:	eb e4                	jmp    107150 <_ZN9nothingos5print6_print28_$u7b$$u7b$closure$u7d$$u7d$17h775a3a8e0eec56baE.llvm.2016506120432514712+0x80>
  10716c:	4c 89 f7             	mov    %r14,%rdi
  10716f:	48 83 c7 02          	add    $0x2,%rdi
  107173:	48 8d 35 9e 1a 01 00 	lea    0x11a9e(%rip),%rsi        # 118c18 <anon.f0f206d330590b1ac1316bbbe74444df.9.llvm.2016506120432514712+0x18>
  10717a:	48 89 da             	mov    %rbx,%rdx
  10717d:	e8 1e c9 00 00       	call   113aa0 <_ZN4core3fmt5write17h79356d2facc18c16E>
  107182:	84 c0                	test   %al,%al
  107184:	75 30                	jne    1071b6 <_ZN9nothingos5print6_print28_$u7b$$u7b$closure$u7d$$u7d$17h775a3a8e0eec56baE.llvm.2016506120432514712+0xe6>
  107186:	41 c6 06 00          	movb   $0x0,(%r14)
  10718a:	48 83 c4 38          	add    $0x38,%rsp
  10718e:	5b                   	pop    %rbx
  10718f:	41 5e                	pop    %r14
  107191:	c3                   	ret
  107192:	48 8d 3d a4 9a ff ff 	lea    -0x655c(%rip),%rdi        # 100c3d <anon.f0f206d330590b1ac1316bbbe74444df.0.llvm.2016506120432514712>
  107199:	48 8d 0d d0 19 01 00 	lea    0x119d0(%rip),%rcx        # 118b70 <anon.f0f206d330590b1ac1316bbbe74444df.3.llvm.2016506120432514712>
  1071a0:	4c 8d 05 59 1a 01 00 	lea    0x11a59(%rip),%r8        # 118c00 <anon.f0f206d330590b1ac1316bbbe74444df.9.llvm.2016506120432514712>
  1071a7:	48 8d 54 24 08       	lea    0x8(%rsp),%rdx
  1071ac:	be 24 00 00 00       	mov    $0x24,%esi
  1071b1:	e8 aa fb 00 00       	call   116d60 <_ZN4core6result13unwrap_failed17hf6308fed240e4aa6E>
  1071b6:	48 8d 3d 90 9c ff ff 	lea    -0x6370(%rip),%rdi        # 100e4d <anon.f0f206d330590b1ac1316bbbe74444df.28.llvm.2016506120432514712+0x26>
  1071bd:	48 8d 0d 44 2d 01 00 	lea    0x12d44(%rip),%rcx        # 119f08 <_ZN9nothingos5print6DRIVER17he9844281a3b4baacE+0xfc8>
  1071c4:	4c 8d 05 5d 2d 01 00 	lea    0x12d5d(%rip),%r8        # 119f28 <_ZN9nothingos5print6DRIVER17he9844281a3b4baacE+0xfe8>
  1071cb:	48 8d 54 24 08       	lea    0x8(%rsp),%rdx
  1071d0:	be 19 00 00 00       	mov    $0x19,%esi
  1071d5:	e8 86 fb 00 00       	call   116d60 <_ZN4core6result13unwrap_failed17hf6308fed240e4aa6E>
  1071da:	48 8d 05 5f 2d 01 00 	lea    0x12d5f(%rip),%rax        # 119f40 <_ZN9nothingos5print6DRIVER17he9844281a3b4baacE+0x1000>
  1071e1:	48 89 44 24 08       	mov    %rax,0x8(%rsp)
  1071e6:	48 c7 44 24 10 01 00 	movq   $0x1,0x10(%rsp)
  1071ed:	00 00 
  1071ef:	48 c7 44 24 28 00 00 	movq   $0x0,0x28(%rsp)
  1071f6:	00 00 
  1071f8:	48 8d 05 29 9b ff ff 	lea    -0x64d7(%rip),%rax        # 100d28 <anon.f0f206d330590b1ac1316bbbe74444df.10.llvm.2016506120432514712>
  1071ff:	48 89 44 24 18       	mov    %rax,0x18(%rsp)
  107204:	48 c7 44 24 20 00 00 	movq   $0x0,0x20(%rsp)
  10720b:	00 00 
  10720d:	48 8d 35 3c 2d 01 00 	lea    0x12d3c(%rip),%rsi        # 119f50 <_ZN9nothingos5print6DRIVER17he9844281a3b4baacE+0x1010>
  107214:	48 8d 7c 24 08       	lea    0x8(%rsp),%rdi
  107219:	e8 e2 e1 00 00       	call   115400 <_ZN4core9panicking9panic_fmt17h625e3df7341abadfE>
  10721e:	48 8d 3d 18 9a ff ff 	lea    -0x65e8(%rip),%rdi        # 100c3d <anon.f0f206d330590b1ac1316bbbe74444df.0.llvm.2016506120432514712>
  107225:	48 8d 0d 44 19 01 00 	lea    0x11944(%rip),%rcx        # 118b70 <anon.f0f206d330590b1ac1316bbbe74444df.3.llvm.2016506120432514712>
  10722c:	4c 8d 05 b5 19 01 00 	lea    0x119b5(%rip),%r8        # 118be8 <anon.f0f206d330590b1ac1316bbbe74444df.5.llvm.2016506120432514712+0x40>
  107233:	48 8d 54 24 08       	lea    0x8(%rsp),%rdx
  107238:	be 24 00 00 00       	mov    $0x24,%esi
  10723d:	e8 1e fb 00 00       	call   116d60 <_ZN4core6result13unwrap_failed17hf6308fed240e4aa6E>
  107242:	66 2e 0f 1f 84 00 00 	cs nopw 0x0(%rax,%rax,1)
  107249:	00 00 00 
  10724c:	0f 1f 40 00          	nopl   0x0(%rax)

0000000000107250 <_ZN9nothingos5print4init17hbd7dba2114678f26E>:
  107250:	53                   	push   %rbx
  107251:	48 83 ec 40          	sub    $0x40,%rsp
  107255:	48 89 7c 24 08       	mov    %rdi,0x8(%rsp)
  10725a:	40 88 74 24 05       	mov    %sil,0x5(%rsp)
  10725f:	88 54 24 06          	mov    %dl,0x6(%rsp)
  107263:	48 8d 1d d6 1c 01 00 	lea    0x11cd6(%rip),%rbx        # 118f40 <_ZN9nothingos5print6DRIVER17he9844281a3b4baacE>
  10726a:	48 8b 83 c0 0f 00 00 	mov    0xfc0(%rbx),%rax
  107271:	48 83 f8 02          	cmp    $0x2,%rax
  107275:	0f 84 ae 00 00 00    	je     107329 <_ZN9nothingos5print4init17hbd7dba2114678f26E+0xd9>
  10727b:	48 83 f8 01          	cmp    $0x1,%rax
  10727f:	74 2e                	je     1072af <_ZN9nothingos5print4init17hbd7dba2114678f26E+0x5f>
  107281:	48 83 f8 03          	cmp    $0x3,%rax
  107285:	0f 85 8d 00 00 00    	jne    107318 <_ZN9nothingos5print4init17hbd7dba2114678f26E+0xc8>
  10728b:	48 8d 3d ab 99 ff ff 	lea    -0x6655(%rip),%rdi        # 100c3d <anon.f0f206d330590b1ac1316bbbe74444df.0.llvm.2016506120432514712>
  107292:	48 8d 0d d7 18 01 00 	lea    0x118d7(%rip),%rcx        # 118b70 <anon.f0f206d330590b1ac1316bbbe74444df.3.llvm.2016506120432514712>
  107299:	4c 8d 05 f0 18 01 00 	lea    0x118f0(%rip),%r8        # 118b90 <anon.f0f206d330590b1ac1316bbbe74444df.4.llvm.2016506120432514712>
  1072a0:	48 8d 54 24 07       	lea    0x7(%rsp),%rdx
  1072a5:	be 24 00 00 00       	mov    $0x24,%esi
  1072aa:	e8 b1 fa 00 00       	call   116d60 <_ZN4core6result13unwrap_failed17hf6308fed240e4aa6E>
  1072af:	48 8d 44 24 08       	lea    0x8(%rsp),%rax
  1072b4:	48 89 44 24 18       	mov    %rax,0x18(%rsp)
  1072b9:	48 8d 44 24 05       	lea    0x5(%rsp),%rax
  1072be:	48 89 44 24 20       	mov    %rax,0x20(%rsp)
  1072c3:	48 8d 44 24 06       	lea    0x6(%rsp),%rax
  1072c8:	48 89 44 24 28       	mov    %rax,0x28(%rsp)
  1072cd:	48 8d 44 24 18       	lea    0x18(%rsp),%rax
  1072d2:	48 89 44 24 10       	mov    %rax,0x10(%rsp)
  1072d7:	48 8d 35 62 1c 01 00 	lea    0x11c62(%rip),%rsi        # 118f40 <_ZN9nothingos5print6DRIVER17he9844281a3b4baacE>
  1072de:	48 8d 0d c3 18 01 00 	lea    0x118c3(%rip),%rcx        # 118ba8 <anon.f0f206d330590b1ac1316bbbe74444df.5.llvm.2016506120432514712>
  1072e5:	48 8d 7c 24 30       	lea    0x30(%rsp),%rdi
  1072ea:	48 8d 54 24 10       	lea    0x10(%rsp),%rdx
  1072ef:	e8 1c 8b 00 00       	call   10fe10 <_ZN12conquer_once4cell21OnceCell$LT$T$C$B$GT$14try_init_inner17he356f80210c1246cE>
  1072f4:	48 8b 44 24 30       	mov    0x30(%rsp),%rax
  1072f9:	48 83 f8 02          	cmp    $0x2,%rax
  1072fd:	74 2a                	je     107329 <_ZN9nothingos5print4init17hbd7dba2114678f26E+0xd9>
  1072ff:	48 85 c0             	test   %rax,%rax
  107302:	75 14                	jne    107318 <_ZN9nothingos5print4init17hbd7dba2114678f26E+0xc8>
  107304:	eb 23                	jmp    107329 <_ZN9nothingos5print4init17hbd7dba2114678f26E+0xd9>
  107306:	66 2e 0f 1f 84 00 00 	cs nopw 0x0(%rax,%rax,1)
  10730d:	00 00 00 
  107310:	48 83 f8 03          	cmp    $0x3,%rax
  107314:	74 19                	je     10732f <_ZN9nothingos5print4init17hbd7dba2114678f26E+0xdf>
  107316:	f3 90                	pause
  107318:	48 8b 83 c0 0f 00 00 	mov    0xfc0(%rbx),%rax
  10731f:	48 8d 48 ff          	lea    -0x1(%rax),%rcx
  107323:	48 83 f9 02          	cmp    $0x2,%rcx
  107327:	73 e7                	jae    107310 <_ZN9nothingos5print4init17hbd7dba2114678f26E+0xc0>
  107329:	48 83 c4 40          	add    $0x40,%rsp
  10732d:	5b                   	pop    %rbx
  10732e:	c3                   	ret
  10732f:	48 8d 3d 07 99 ff ff 	lea    -0x66f9(%rip),%rdi        # 100c3d <anon.f0f206d330590b1ac1316bbbe74444df.0.llvm.2016506120432514712>
  107336:	48 8d 0d 33 18 01 00 	lea    0x11833(%rip),%rcx        # 118b70 <anon.f0f206d330590b1ac1316bbbe74444df.3.llvm.2016506120432514712>
  10733d:	4c 8d 05 bc 18 01 00 	lea    0x118bc(%rip),%r8        # 118c00 <anon.f0f206d330590b1ac1316bbbe74444df.9.llvm.2016506120432514712>
  107344:	48 8d 54 24 07       	lea    0x7(%rsp),%rdx
  107349:	be 24 00 00 00       	mov    $0x24,%esi
  10734e:	e8 0d fa 00 00       	call   116d60 <_ZN4core6result13unwrap_failed17hf6308fed240e4aa6E>
  107353:	66 2e 0f 1f 84 00 00 	cs nopw 0x0(%rax,%rax,1)
  10735a:	00 00 00 
  10735d:	0f 1f 00             	nopl   (%rax)

0000000000107360 <_ZN12conquer_once4cell21OnceCell$LT$T$C$B$GT$13try_init_once28_$u7b$$u7b$closure$u7d$$u7d$17hdc8abdd3cb7737a0E>:
  107360:	48 8b 16             	mov    (%rsi),%rdx
  107363:	48 8b 02             	mov    (%rdx),%rax
  107366:	48 8b 4a 08          	mov    0x8(%rdx),%rcx
  10736a:	48 c7 02 00 00 00 00 	movq   $0x0,(%rdx)
  107371:	48 85 c0             	test   %rax,%rax
  107374:	74 0f                	je     107385 <_ZN12conquer_once4cell21OnceCell$LT$T$C$B$GT$13try_init_once28_$u7b$$u7b$closure$u7d$$u7d$17hdc8abdd3cb7737a0E+0x25>
  107376:	c6 07 00             	movb   $0x0,(%rdi)
  107379:	48 89 47 08          	mov    %rax,0x8(%rdi)
  10737d:	48 89 4f 10          	mov    %rcx,0x10(%rdi)
  107381:	48 89 f8             	mov    %rdi,%rax
  107384:	c3                   	ret
  107385:	50                   	push   %rax
  107386:	48 8d 3d 53 2c 01 00 	lea    0x12c53(%rip),%rdi        # 119fe0 <_ZN9nothingos5print6DRIVER17he9844281a3b4baacE+0x10a0>
  10738d:	e8 3e f9 00 00       	call   116cd0 <_ZN4core6option13unwrap_failed17he52d730686d7539bE>
  107392:	66 2e 0f 1f 84 00 00 	cs nopw 0x0(%rax,%rax,1)
  107399:	00 00 00 
  10739c:	0f 1f 40 00          	nopl   0x0(%rax)

00000000001073a0 <_ZN4core3ops8function6FnOnce40call_once$u7b$$u7b$vtable.shim$u7d$$u7d$17hb589d1aa05f94d73E>:
  1073a0:	48 8b 16             	mov    (%rsi),%rdx
  1073a3:	48 8b 02             	mov    (%rdx),%rax
  1073a6:	48 8b 4a 08          	mov    0x8(%rdx),%rcx
  1073aa:	48 c7 02 00 00 00 00 	movq   $0x0,(%rdx)
  1073b1:	48 85 c0             	test   %rax,%rax
  1073b4:	74 0f                	je     1073c5 <_ZN4core3ops8function6FnOnce40call_once$u7b$$u7b$vtable.shim$u7d$$u7d$17hb589d1aa05f94d73E+0x25>
  1073b6:	c6 07 00             	movb   $0x0,(%rdi)
  1073b9:	48 89 47 08          	mov    %rax,0x8(%rdi)
  1073bd:	48 89 4f 10          	mov    %rcx,0x10(%rdi)
  1073c1:	48 89 f8             	mov    %rdi,%rax
  1073c4:	c3                   	ret
  1073c5:	50                   	push   %rax
  1073c6:	48 8d 3d 13 2c 01 00 	lea    0x12c13(%rip),%rdi        # 119fe0 <_ZN9nothingos5print6DRIVER17he9844281a3b4baacE+0x10a0>
  1073cd:	e8 fe f8 00 00       	call   116cd0 <_ZN4core6option13unwrap_failed17he52d730686d7539bE>
  1073d2:	66 2e 0f 1f 84 00 00 	cs nopw 0x0(%rax,%rax,1)
  1073d9:	00 00 00 
  1073dc:	0f 1f 40 00          	nopl   0x0(%rax)

00000000001073e0 <_ZN4core3ptr258drop_in_place$LT$conquer_once..cell..OnceCell$LT$spin..mutex..Mutex$LT$nothingos..memory..paging..ActivePageTable$GT$$C$conquer_once..spin..internal..Spin$GT$..try_init_once$LT$nothingos..init..$u7b$$u7b$closure$u7d$$u7d$$GT$..$u7b$$u7b$closure$u7d$$u7d$$GT$17h68017d14f1b2d5bbE>:
  1073e0:	c3                   	ret
  1073e1:	66 2e 0f 1f 84 00 00 	cs nopw 0x0(%rax,%rax,1)
  1073e8:	00 00 00 
  1073eb:	0f 1f 44 00 00       	nopl   0x0(%rax,%rax,1)

00000000001073f0 <_ZN4core3ptr53drop_in_place$LT$conquer_once..state..PoisonError$GT$17ha9f58fc10da553fbE>:
  1073f0:	c3                   	ret
  1073f1:	66 2e 0f 1f 84 00 00 	cs nopw 0x0(%rax,%rax,1)
  1073f8:	00 00 00 
  1073fb:	0f 1f 44 00 00       	nopl   0x0(%rax,%rax,1)

0000000000107400 <_ZN69_$LT$conquer_once..state..PoisonError$u20$as$u20$core..fmt..Debug$GT$3fmt17hd653e451986b7aa6E>:
  107400:	48 89 f7             	mov    %rsi,%rdi
  107403:	48 8d 35 9a 9c ff ff 	lea    -0x6366(%rip),%rsi        # 1010a4 <anon.d39f7417b192011c8460b08e0c693ceb.11.llvm.16120126482051966736+0x86>
  10740a:	ba 0b 00 00 00       	mov    $0xb,%edx
  10740f:	e9 6c cf 00 00       	jmp    114380 <_ZN4core3fmt9Formatter9write_str17h8eb588591b035279E>
  107414:	66 2e 0f 1f 84 00 00 	cs nopw 0x0(%rax,%rax,1)
  10741b:	00 00 00 
  10741e:	66 90                	xchg   %ax,%ax

0000000000107420 <rust_begin_unwind>:
  107420:	48 83 ec 48          	sub    $0x48,%rsp
  107424:	48 89 3c 24          	mov    %rdi,(%rsp)
  107428:	48 89 e0             	mov    %rsp,%rax
  10742b:	48 89 44 24 08       	mov    %rax,0x8(%rsp)
  107430:	48 8d 05 29 19 00 00 	lea    0x1929(%rip),%rax        # 108d60 <_ZN44_$LT$$RF$T$u20$as$u20$core..fmt..Display$GT$3fmt17hd952b8a0e9793021E>
  107437:	48 89 44 24 10       	mov    %rax,0x10(%rsp)
  10743c:	48 8d 05 e5 2b 01 00 	lea    0x12be5(%rip),%rax        # 11a028 <anon.d39f7417b192011c8460b08e0c693ceb.12.llvm.16120126482051966736+0x18>
  107443:	48 89 44 24 18       	mov    %rax,0x18(%rsp)
  107448:	48 c7 44 24 20 02 00 	movq   $0x2,0x20(%rsp)
  10744f:	00 00 
  107451:	48 c7 44 24 38 00 00 	movq   $0x0,0x38(%rsp)
  107458:	00 00 
  10745a:	48 8d 44 24 08       	lea    0x8(%rsp),%rax
  10745f:	48 89 44 24 28       	mov    %rax,0x28(%rsp)
  107464:	48 c7 44 24 30 01 00 	movq   $0x1,0x30(%rsp)
  10746b:	00 00 
  10746d:	48 8d 7c 24 18       	lea    0x18(%rsp),%rdi
  107472:	e8 49 f1 ff ff       	call   1065c0 <_ZN9nothingos6serial6_print17heaf67e8bbc7364c4E>
  107477:	66 0f 1f 84 00 00 00 	nopw   0x0(%rax,%rax,1)
  10747e:	00 00 
  107480:	f4                   	hlt
  107481:	eb fd                	jmp    107480 <rust_begin_unwind+0x60>
  107483:	66 2e 0f 1f 84 00 00 	cs nopw 0x0(%rax,%rax,1)
  10748a:	00 00 00 
  10748d:	0f 1f 00             	nopl   (%rax)

0000000000107490 <_ZN9nothingos4init17hc8242e26dd7deee2E>:
  107490:	41 57                	push   %r15
  107492:	41 56                	push   %r14
  107494:	53                   	push   %rbx
  107495:	48 81 ec 20 01 00 00 	sub    $0x120,%rsp
  10749c:	48 89 fe             	mov    %rdi,%rsi
  10749f:	48 8b 7f 58          	mov    0x58(%rdi),%rdi
  1074a3:	b9 1b 00 00 00       	mov    $0x1b,%ecx
  1074a8:	0f 32                	rdmsr
  1074aa:	48 c1 e2 20          	shl    $0x20,%rdx
  1074ae:	89 c0                	mov    %eax,%eax
  1074b0:	48 09 d0             	or     %rdx,%rax
  1074b3:	48 8b 56 60          	mov    0x60(%rsi),%rdx
  1074b7:	48 8b 4e 68          	mov    0x68(%rsi),%rcx
  1074bb:	4c 8b 77 20          	mov    0x20(%rdi),%r14
  1074bf:	4d 85 f6             	test   %r14,%r14
  1074c2:	75 0b                	jne    1074cf <_ZN9nothingos4init17hc8242e26dd7deee2E+0x3f>
  1074c4:	45 31 d2             	xor    %r10d,%r10d
  1074c7:	45 31 c9             	xor    %r9d,%r9d
  1074ca:	e9 ad 00 00 00       	jmp    10757c <_ZN9nothingos4init17hc8242e26dd7deee2E+0xec>
  1074cf:	4c 8b 0f             	mov    (%rdi),%r9
  1074d2:	4c 8b 5f 18          	mov    0x18(%rdi),%r11
  1074d6:	49 8d 5e ff          	lea    -0x1(%r14),%rbx
  1074da:	41 bf 01 00 00 00    	mov    $0x1,%r15d
  1074e0:	45 31 d2             	xor    %r10d,%r10d
  1074e3:	66 66 66 66 2e 0f 1f 	data16 data16 data16 cs nopw 0x0(%rax,%rax,1)
  1074ea:	84 00 00 00 00 00 
  1074f0:	41 83 39 07          	cmpl   $0x7,(%r9)
  1074f4:	74 11                	je     107507 <_ZN9nothingos4init17hc8242e26dd7deee2E+0x77>
  1074f6:	4d 01 d9             	add    %r11,%r9
  1074f9:	49 ff c7             	inc    %r15
  1074fc:	48 83 c3 ff          	add    $0xffffffffffffffff,%rbx
  107500:	72 ee                	jb     1074f0 <_ZN9nothingos4init17hc8242e26dd7deee2E+0x60>
  107502:	45 31 c9             	xor    %r9d,%r9d
  107505:	eb 75                	jmp    10757c <_ZN9nothingos4init17hc8242e26dd7deee2E+0xec>
  107507:	4d 8b 41 08          	mov    0x8(%r9),%r8
  10750b:	4d 39 fe             	cmp    %r15,%r14
  10750e:	76 38                	jbe    107548 <_ZN9nothingos4init17hc8242e26dd7deee2E+0xb8>
  107510:	4f 8d 14 19          	lea    (%r9,%r11,1),%r10
  107514:	eb 12                	jmp    107528 <_ZN9nothingos4init17hc8242e26dd7deee2E+0x98>
  107516:	66 2e 0f 1f 84 00 00 	cs nopw 0x0(%rax,%rax,1)
  10751d:	00 00 00 
  107520:	4d 01 da             	add    %r11,%r10
  107523:	48 ff cb             	dec    %rbx
  107526:	74 17                	je     10753f <_ZN9nothingos4init17hc8242e26dd7deee2E+0xaf>
  107528:	41 83 3a 07          	cmpl   $0x7,(%r10)
  10752c:	75 f2                	jne    107520 <_ZN9nothingos4init17hc8242e26dd7deee2E+0x90>
  10752e:	4d 8b 72 08          	mov    0x8(%r10),%r14
  107532:	4d 39 f0             	cmp    %r14,%r8
  107535:	4d 0f 47 ca          	cmova  %r10,%r9
  107539:	4d 0f 43 c6          	cmovae %r14,%r8
  10753d:	eb e1                	jmp    107520 <_ZN9nothingos4init17hc8242e26dd7deee2E+0x90>
  10753f:	4d 85 c9             	test   %r9,%r9
  107542:	74 80                	je     1074c4 <_ZN9nothingos4init17hc8242e26dd7deee2E+0x34>
  107544:	4d 8b 41 08          	mov    0x8(%r9),%r8
  107548:	4d 8b 19             	mov    (%r9),%r11
  10754b:	4d 8b 51 10          	mov    0x10(%r9),%r10
  10754f:	49 8b 59 18          	mov    0x18(%r9),%rbx
  107553:	4d 8b 49 20          	mov    0x20(%r9),%r9
  107557:	4c 89 8c 24 b8 00 00 	mov    %r9,0xb8(%rsp)
  10755e:	00 
  10755f:	48 89 9c 24 b0 00 00 	mov    %rbx,0xb0(%rsp)
  107566:	00 
  107567:	4c 89 94 24 a8 00 00 	mov    %r10,0xa8(%rsp)
  10756e:	00 
  10756f:	4d 89 c2             	mov    %r8,%r10
  107572:	49 c1 ea 0c          	shr    $0xc,%r10
  107576:	41 b9 01 00 00 00    	mov    $0x1,%r9d
  10757c:	49 bf 00 f0 ff ff ff 	movabs $0xffffffffff000,%r15
  107583:	ff 0f 00 
  107586:	48 c1 e8 0c          	shr    $0xc,%rax
  10758a:	25 ff ff ff 00       	and    $0xffffff,%eax
  10758f:	48 c1 e9 0c          	shr    $0xc,%rcx
  107593:	48 c1 ea 0c          	shr    $0xc,%rdx
  107597:	4c 89 4c 24 48       	mov    %r9,0x48(%rsp)
  10759c:	4c 89 5c 24 50       	mov    %r11,0x50(%rsp)
  1075a1:	4c 89 44 24 58       	mov    %r8,0x58(%rsp)
  1075a6:	4c 8b 84 24 a8 00 00 	mov    0xa8(%rsp),%r8
  1075ad:	00 
  1075ae:	4c 8b 8c 24 b0 00 00 	mov    0xb0(%rsp),%r9
  1075b5:	00 
  1075b6:	4c 89 44 24 60       	mov    %r8,0x60(%rsp)
  1075bb:	4c 89 4c 24 68       	mov    %r9,0x68(%rsp)
  1075c0:	4c 8b 84 24 b8 00 00 	mov    0xb8(%rsp),%r8
  1075c7:	00 
  1075c8:	4c 89 44 24 70       	mov    %r8,0x70(%rsp)
  1075cd:	48 89 7c 24 78       	mov    %rdi,0x78(%rsp)
  1075d2:	4c 89 94 24 80 00 00 	mov    %r10,0x80(%rsp)
  1075d9:	00 
  1075da:	48 89 94 24 88 00 00 	mov    %rdx,0x88(%rsp)
  1075e1:	00 
  1075e2:	48 89 8c 24 90 00 00 	mov    %rcx,0x90(%rsp)
  1075e9:	00 
  1075ea:	48 89 84 24 98 00 00 	mov    %rax,0x98(%rsp)
  1075f1:	00 
  1075f2:	48 89 84 24 a0 00 00 	mov    %rax,0xa0(%rsp)
  1075f9:	00 
  1075fa:	b9 80 00 00 c0       	mov    $0xc0000080,%ecx
  1075ff:	0f 32                	rdmsr
  107601:	89 c7                	mov    %eax,%edi
  107603:	81 e7 01 f5 00 00    	and    $0xf501,%edi
  107609:	0f 32                	rdmsr
  10760b:	25 fe 02 ff ff       	and    $0xffff02fe,%eax
  107610:	01 f8                	add    %edi,%eax
  107612:	05 00 08 00 00       	add    $0x800,%eax
  107617:	0f 30                	wrmsr
  107619:	0f 20 c0             	mov    %cr0,%rax
  10761c:	25 3f 00 04 e0       	and    $0xe004003f,%eax
  107621:	0f 20 c1             	mov    %cr0,%rcx
  107624:	48 ba c0 ff fa 1f ff 	movabs $0xffffffff1ffaffc0,%rdx
  10762b:	ff ff ff 
  10762e:	48 21 ca             	and    %rcx,%rdx
  107631:	48 01 d0             	add    %rdx,%rax
  107634:	48 05 00 00 01 00    	add    $0x10000,%rax
  10763a:	0f 22 c0             	mov    %rax,%cr0
  10763d:	4c 8d 74 24 48       	lea    0x48(%rsp),%r14
  107642:	4c 89 f7             	mov    %r14,%rdi
  107645:	e8 26 08 00 00       	call   107e70 <_ZN9nothingos6memory6paging16remap_the_kernel17h443a2e23969e22e3E>
  10764a:	48 89 44 24 28       	mov    %rax,0x28(%rsp)
  10764f:	48 89 54 24 30       	mov    %rdx,0x30(%rsp)
  107654:	48 8d 9c 24 a8 00 00 	lea    0xa8(%rsp),%rbx
  10765b:	00 
  10765c:	b9 0c 00 00 00       	mov    $0xc,%ecx
  107661:	48 89 df             	mov    %rbx,%rdi
  107664:	4c 89 f6             	mov    %r14,%rsi
  107667:	f3 48 a5             	rep movsq %ds:(%rsi),%es:(%rdi)
  10766a:	48 8d 44 24 28       	lea    0x28(%rsp),%rax
  10766f:	48 89 84 24 08 01 00 	mov    %rax,0x108(%rsp)
  107676:	00 
  107677:	49 8d 87 fa 00 00 00 	lea    0xfa(%r15),%rax
  10767e:	48 89 84 24 10 01 00 	mov    %rax,0x110(%rsp)
  107685:	00 
  107686:	49 8d 87 5e 01 00 00 	lea    0x15e(%r15),%rax
  10768d:	48 89 84 24 18 01 00 	mov    %rax,0x118(%rsp)
  107694:	00 
  107695:	48 89 df             	mov    %rbx,%rdi
  107698:	e8 93 7b 00 00       	call   10f230 <_ZN9nothingos3gdt8init_gdt17h46987bbb5be84a3eE>
  10769d:	48 89 df             	mov    %rbx,%rdi
  1076a0:	e8 eb e3 ff ff       	call   105a90 <_ZN9nothingos9interrupt4init17h3af5292d6e6e7fccE>
  1076a5:	fb                   	sti
  1076a6:	45 31 f6             	xor    %r14d,%r14d
  1076a9:	bf 00 80 0b 00       	mov    $0xb8000,%edi
  1076ae:	be 0b 00 00 00       	mov    $0xb,%esi
  1076b3:	31 d2                	xor    %edx,%edx
  1076b5:	e8 96 fb ff ff       	call   107250 <_ZN9nothingos5print4init17hbd7dba2114678f26E>
  1076ba:	66 0f 1f 44 00 00    	nopw   0x0(%rax,%rax,1)
  1076c0:	4b 8d 34 3e          	lea    (%r14,%r15,1),%rsi
  1076c4:	48 8b bc 24 08 01 00 	mov    0x108(%rsp),%rdi
  1076cb:	00 
  1076cc:	48 83 c7 08          	add    $0x8,%rdi
  1076d0:	ba 02 00 00 00       	mov    $0x2,%edx
  1076d5:	48 89 d9             	mov    %rbx,%rcx
  1076d8:	e8 73 81 00 00       	call   10f850 <_ZN9nothingos6memory6paging6mapper6Mapper3map17h8f217c56f55f9ee4E>
  1076dd:	49 ff c6             	inc    %r14
  1076e0:	49 81 fe fa 00 00 00 	cmp    $0xfa,%r14
  1076e7:	75 d7                	jne    1076c0 <_ZN9nothingos4init17hc8242e26dd7deee2E+0x230>
  1076e9:	b1 01                	mov    $0x1,%cl
  1076eb:	0f 1f 44 00 00       	nopl   0x0(%rax,%rax,1)
  1076f0:	31 c0                	xor    %eax,%eax
  1076f2:	f0 0f b0 0d 0e 49 01 	lock cmpxchg %cl,0x1490e(%rip)        # 11c008 <_ZN9nothingos9allocator16GLOBAL_ALLOCATOR17hf60b19268c11c607E.llvm.10293348477465442824>
  1076f9:	00 
  1076fa:	75 06                	jne    107702 <_ZN9nothingos4init17hc8242e26dd7deee2E+0x272>
  1076fc:	eb 11                	jmp    10770f <_ZN9nothingos4init17hc8242e26dd7deee2E+0x27f>
  1076fe:	66 90                	xchg   %ax,%ax
  107700:	f3 90                	pause
  107702:	0f b6 05 ff 48 01 00 	movzbl 0x148ff(%rip),%eax        # 11c008 <_ZN9nothingos9allocator16GLOBAL_ALLOCATOR17hf60b19268c11c607E.llvm.10293348477465442824>
  107709:	84 c0                	test   %al,%al
  10770b:	75 f3                	jne    107700 <_ZN9nothingos4init17hc8242e26dd7deee2E+0x270>
  10770d:	eb e1                	jmp    1076f0 <_ZN9nothingos4init17hc8242e26dd7deee2E+0x260>
  10770f:	48 8b 05 02 49 01 00 	mov    0x14902(%rip),%rax        # 11c018 <_ZN9nothingos9allocator16GLOBAL_ALLOCATOR17hf60b19268c11c607E.llvm.10293348477465442824+0x10>
  107716:	48 c7 04 25 00 00 00 	movq   $0xfa000,0xffffffffff000000
  10771d:	ff 00 a0 0f 00 
  107722:	48 89 04 25 08 00 00 	mov    %rax,0xffffffffff000008
  107729:	ff 
